Archive member included because of file (symbol)

c:/altera/13.0/nios2eds/bin/gnu/h-i686-mingw32/bin/../lib/gcc/nios2-elf/4.1.2\libgcc.a(_addsub_df.o)
                              obj/default//D/cs723-assignment1/software/freertos_test/freertos_test.o (__subdf3)
c:/altera/13.0/nios2eds/bin/gnu/h-i686-mingw32/bin/../lib/gcc/nios2-elf/4.1.2\libgcc.a(_mul_df.o)
                              obj/default//D/cs723-assignment1/software/freertos_test/freertos_test.o (__muldf3)
c:/altera/13.0/nios2eds/bin/gnu/h-i686-mingw32/bin/../lib/gcc/nios2-elf/4.1.2\libgcc.a(_div_df.o)
                              obj/default//D/cs723-assignment1/software/freertos_test/freertos_test.o (__divdf3)
c:/altera/13.0/nios2eds/bin/gnu/h-i686-mingw32/bin/../lib/gcc/nios2-elf/4.1.2\libgcc.a(_eq_df.o)
                              obj/default//D/cs723-assignment1/software/freertos_test/freertos_test.o (__eqdf2)
c:/altera/13.0/nios2eds/bin/gnu/h-i686-mingw32/bin/../lib/gcc/nios2-elf/4.1.2\libgcc.a(_si_to_df.o)
                              obj/default//D/cs723-assignment1/software/freertos_test/freertos_test.o (__floatsidf)
c:/altera/13.0/nios2eds/bin/gnu/h-i686-mingw32/bin/../lib/gcc/nios2-elf/4.1.2\libgcc.a(_thenan_df.o)
                              c:/altera/13.0/nios2eds/bin/gnu/h-i686-mingw32/bin/../lib/gcc/nios2-elf/4.1.2\libgcc.a(_addsub_df.o) (__thenan_df)
c:/altera/13.0/nios2eds/bin/gnu/h-i686-mingw32/bin/../lib/gcc/nios2-elf/4.1.2\libgcc.a(_usi_to_df.o)
                              obj/default//D/cs723-assignment1/software/freertos_test/freertos_test.o (__floatunsidf)
c:/altera/13.0/nios2eds/bin/gnu/h-i686-mingw32/bin/../lib/gcc/nios2-elf/4.1.2\libgcc.a(_muldi3.o)
                              c:/altera/13.0/nios2eds/bin/gnu/h-i686-mingw32/bin/../lib/gcc/nios2-elf/4.1.2\libgcc.a(_mul_df.o) (__muldi3)
c:/altera/13.0/nios2eds/bin/gnu/h-i686-mingw32/bin/../lib/gcc/nios2-elf/4.1.2\libgcc.a(_clzsi2.o)
                              c:/altera/13.0/nios2eds/bin/gnu/h-i686-mingw32/bin/../lib/gcc/nios2-elf/4.1.2\libgcc.a(_si_to_df.o) (__clzsi2)
c:/altera/13.0/nios2eds/bin/gnu/h-i686-mingw32/bin/../lib/gcc/nios2-elf/4.1.2\libgcc.a(_pack_df.o)
                              c:/altera/13.0/nios2eds/bin/gnu/h-i686-mingw32/bin/../lib/gcc/nios2-elf/4.1.2\libgcc.a(_addsub_df.o) (__pack_d)
c:/altera/13.0/nios2eds/bin/gnu/h-i686-mingw32/bin/../lib/gcc/nios2-elf/4.1.2\libgcc.a(_unpack_df.o)
                              c:/altera/13.0/nios2eds/bin/gnu/h-i686-mingw32/bin/../lib/gcc/nios2-elf/4.1.2\libgcc.a(_addsub_df.o) (__unpack_d)
c:/altera/13.0/nios2eds/bin/gnu/h-i686-mingw32/bin/../lib/gcc/nios2-elf/4.1.2\libgcc.a(_fpcmp_parts_df.o)
                              c:/altera/13.0/nios2eds/bin/gnu/h-i686-mingw32/bin/../lib/gcc/nios2-elf/4.1.2\libgcc.a(_eq_df.o) (__fpcmp_parts_d)
c:/altera/13.0/nios2eds/bin/gnu/h-i686-mingw32/bin/../lib/gcc/nios2-elf/4.1.2\libgcc.a(_clz.o)
                              c:/altera/13.0/nios2eds/bin/gnu/h-i686-mingw32/bin/../lib/gcc/nios2-elf/4.1.2\libgcc.a(_clzsi2.o) (__clz_tab)
c:/altera/13.0/nios2eds/bin/gnu/h-i686-mingw32/bin/../lib/gcc/nios2-elf/4.1.2/../../../../nios2-elf/lib\libc.a(lib_a-memcmp.o)
                              obj/default//D/cs723-assignment1/software/freertos_test/freertos/tasks.o (memcmp)
c:/altera/13.0/nios2eds/bin/gnu/h-i686-mingw32/bin/../lib/gcc/nios2-elf/4.1.2/../../../../nios2-elf/lib\libc.a(lib_a-memcpy.o)
                              obj/default//D/cs723-assignment1/software/freertos_test/freertos/queue.o (memcpy)
c:/altera/13.0/nios2eds/bin/gnu/h-i686-mingw32/bin/../lib/gcc/nios2-elf/4.1.2/../../../../nios2-elf/lib\libc.a(lib_a-memset.o)
                              obj/default//D/cs723-assignment1/software/freertos_test/freertos/tasks.o (memset)
c:/altera/13.0/nios2eds/bin/gnu/h-i686-mingw32/bin/../lib/gcc/nios2-elf/4.1.2/../../../../nios2-elf/lib\libc.a(lib_a-printf.o)
                              obj/default//D/cs723-assignment1/software/freertos_test/freertos/port.o (printf)
c:/altera/13.0/nios2eds/bin/gnu/h-i686-mingw32/bin/../lib/gcc/nios2-elf/4.1.2/../../../../nios2-elf/lib\libc.a(lib_a-puts.o)
                              obj/default//D/cs723-assignment1/software/freertos_test/freertos_test.o (puts)
c:/altera/13.0/nios2eds/bin/gnu/h-i686-mingw32/bin/../lib/gcc/nios2-elf/4.1.2/../../../../nios2-elf/lib\libc.a(lib_a-strlen.o)
                              c:/altera/13.0/nios2eds/bin/gnu/h-i686-mingw32/bin/../lib/gcc/nios2-elf/4.1.2/../../../../nios2-elf/lib\libc.a(lib_a-puts.o) (strlen)
c:/altera/13.0/nios2eds/bin/gnu/h-i686-mingw32/bin/../lib/gcc/nios2-elf/4.1.2/../../../../nios2-elf/lib\libc.a(lib_a-vfprintf.o)
                              c:/altera/13.0/nios2eds/bin/gnu/h-i686-mingw32/bin/../lib/gcc/nios2-elf/4.1.2/../../../../nios2-elf/lib\libc.a(lib_a-printf.o) (___vfprintf_internal_r)
c:/altera/13.0/nios2eds/bin/gnu/h-i686-mingw32/bin/../lib/gcc/nios2-elf/4.1.2/../../../../nios2-elf/lib\libc.a(lib_a-wsetup.o)
                              c:/altera/13.0/nios2eds/bin/gnu/h-i686-mingw32/bin/../lib/gcc/nios2-elf/4.1.2/../../../../nios2-elf/lib\libc.a(lib_a-vfprintf.o) (__swsetup_r)
c:/altera/13.0/nios2eds/bin/gnu/h-i686-mingw32/bin/../lib/gcc/nios2-elf/4.1.2/../../../../nios2-elf/lib\libc.a(lib_a-dtoa.o)
                              c:/altera/13.0/nios2eds/bin/gnu/h-i686-mingw32/bin/../lib/gcc/nios2-elf/4.1.2/../../../../nios2-elf/lib\libc.a(lib_a-vfprintf.o) (_dtoa_r)
c:/altera/13.0/nios2eds/bin/gnu/h-i686-mingw32/bin/../lib/gcc/nios2-elf/4.1.2/../../../../nios2-elf/lib\libc.a(lib_a-fflush.o)
                              c:/altera/13.0/nios2eds/bin/gnu/h-i686-mingw32/bin/../lib/gcc/nios2-elf/4.1.2/../../../../nios2-elf/lib\libc.a(lib_a-vfprintf.o) (_fflush_r)
c:/altera/13.0/nios2eds/bin/gnu/h-i686-mingw32/bin/../lib/gcc/nios2-elf/4.1.2/../../../../nios2-elf/lib\libc.a(lib_a-findfp.o)
                              c:/altera/13.0/nios2eds/bin/gnu/h-i686-mingw32/bin/../lib/gcc/nios2-elf/4.1.2/../../../../nios2-elf/lib\libc.a(lib_a-vfprintf.o) (__sinit)
c:/altera/13.0/nios2eds/bin/gnu/h-i686-mingw32/bin/../lib/gcc/nios2-elf/4.1.2/../../../../nios2-elf/lib\libc.a(lib_a-freer.o)
                              c:/altera/13.0/nios2eds/bin/gnu/h-i686-mingw32/bin/../lib/gcc/nios2-elf/4.1.2/../../../../nios2-elf/lib\libc.a(lib_a-wsetup.o) (_free_r)
c:/altera/13.0/nios2eds/bin/gnu/h-i686-mingw32/bin/../lib/gcc/nios2-elf/4.1.2/../../../../nios2-elf/lib\libc.a(lib_a-fvwrite.o)
                              c:/altera/13.0/nios2eds/bin/gnu/h-i686-mingw32/bin/../lib/gcc/nios2-elf/4.1.2/../../../../nios2-elf/lib\libc.a(lib_a-puts.o) (__sfvwrite_r)
c:/altera/13.0/nios2eds/bin/gnu/h-i686-mingw32/bin/../lib/gcc/nios2-elf/4.1.2/../../../../nios2-elf/lib\libc.a(lib_a-fwalk.o)
                              c:/altera/13.0/nios2eds/bin/gnu/h-i686-mingw32/bin/../lib/gcc/nios2-elf/4.1.2/../../../../nios2-elf/lib\libc.a(lib_a-fflush.o) (_fwalk_reent)
c:/altera/13.0/nios2eds/bin/gnu/h-i686-mingw32/bin/../lib/gcc/nios2-elf/4.1.2/../../../../nios2-elf/lib\libc.a(lib_a-impure.o)
                              c:/altera/13.0/nios2eds/bin/gnu/h-i686-mingw32/bin/../lib/gcc/nios2-elf/4.1.2/../../../../nios2-elf/lib\libc.a(lib_a-printf.o) (_impure_ptr)
c:/altera/13.0/nios2eds/bin/gnu/h-i686-mingw32/bin/../lib/gcc/nios2-elf/4.1.2/../../../../nios2-elf/lib\libc.a(lib_a-locale.o)
                              c:/altera/13.0/nios2eds/bin/gnu/h-i686-mingw32/bin/../lib/gcc/nios2-elf/4.1.2/../../../../nios2-elf/lib\libc.a(lib_a-vfprintf.o) (_localeconv_r)
c:/altera/13.0/nios2eds/bin/gnu/h-i686-mingw32/bin/../lib/gcc/nios2-elf/4.1.2/../../../../nios2-elf/lib\libc.a(lib_a-makebuf.o)
                              c:/altera/13.0/nios2eds/bin/gnu/h-i686-mingw32/bin/../lib/gcc/nios2-elf/4.1.2/../../../../nios2-elf/lib\libc.a(lib_a-wsetup.o) (__smakebuf_r)
c:/altera/13.0/nios2eds/bin/gnu/h-i686-mingw32/bin/../lib/gcc/nios2-elf/4.1.2/../../../../nios2-elf/lib\libc.a(lib_a-mallocr.o)
                              c:/altera/13.0/nios2eds/bin/gnu/h-i686-mingw32/bin/../lib/gcc/nios2-elf/4.1.2/../../../../nios2-elf/lib\libc.a(lib_a-findfp.o) (_malloc_r)
c:/altera/13.0/nios2eds/bin/gnu/h-i686-mingw32/bin/../lib/gcc/nios2-elf/4.1.2/../../../../nios2-elf/lib\libc.a(lib_a-memchr.o)
                              c:/altera/13.0/nios2eds/bin/gnu/h-i686-mingw32/bin/../lib/gcc/nios2-elf/4.1.2/../../../../nios2-elf/lib\libc.a(lib_a-vfprintf.o) (memchr)
c:/altera/13.0/nios2eds/bin/gnu/h-i686-mingw32/bin/../lib/gcc/nios2-elf/4.1.2/../../../../nios2-elf/lib\libc.a(lib_a-memmove.o)
                              c:/altera/13.0/nios2eds/bin/gnu/h-i686-mingw32/bin/../lib/gcc/nios2-elf/4.1.2/../../../../nios2-elf/lib\libc.a(lib_a-fvwrite.o) (memmove)
c:/altera/13.0/nios2eds/bin/gnu/h-i686-mingw32/bin/../lib/gcc/nios2-elf/4.1.2/../../../../nios2-elf/lib\libc.a(lib_a-mprec.o)
                              c:/altera/13.0/nios2eds/bin/gnu/h-i686-mingw32/bin/../lib/gcc/nios2-elf/4.1.2/../../../../nios2-elf/lib\libc.a(lib_a-dtoa.o) (_Bfree)
c:/altera/13.0/nios2eds/bin/gnu/h-i686-mingw32/bin/../lib/gcc/nios2-elf/4.1.2/../../../../nios2-elf/lib\libc.a(lib_a-reallocr.o)
                              c:/altera/13.0/nios2eds/bin/gnu/h-i686-mingw32/bin/../lib/gcc/nios2-elf/4.1.2/../../../../nios2-elf/lib\libc.a(lib_a-fvwrite.o) (_realloc_r)
c:/altera/13.0/nios2eds/bin/gnu/h-i686-mingw32/bin/../lib/gcc/nios2-elf/4.1.2/../../../../nios2-elf/lib\libc.a(lib_a-s_isinfd.o)
                              c:/altera/13.0/nios2eds/bin/gnu/h-i686-mingw32/bin/../lib/gcc/nios2-elf/4.1.2/../../../../nios2-elf/lib\libc.a(lib_a-vfprintf.o) (__isinfd)
c:/altera/13.0/nios2eds/bin/gnu/h-i686-mingw32/bin/../lib/gcc/nios2-elf/4.1.2/../../../../nios2-elf/lib\libc.a(lib_a-s_isnand.o)
                              c:/altera/13.0/nios2eds/bin/gnu/h-i686-mingw32/bin/../lib/gcc/nios2-elf/4.1.2/../../../../nios2-elf/lib\libc.a(lib_a-vfprintf.o) (__isnand)
c:/altera/13.0/nios2eds/bin/gnu/h-i686-mingw32/bin/../lib/gcc/nios2-elf/4.1.2/../../../../nios2-elf/lib\libc.a(lib_a-sbrkr.o)
                              c:/altera/13.0/nios2eds/bin/gnu/h-i686-mingw32/bin/../lib/gcc/nios2-elf/4.1.2/../../../../nios2-elf/lib\libc.a(lib_a-freer.o) (_sbrk_r)
c:/altera/13.0/nios2eds/bin/gnu/h-i686-mingw32/bin/../lib/gcc/nios2-elf/4.1.2/../../../../nios2-elf/lib\libc.a(lib_a-stdio.o)
                              c:/altera/13.0/nios2eds/bin/gnu/h-i686-mingw32/bin/../lib/gcc/nios2-elf/4.1.2/../../../../nios2-elf/lib\libc.a(lib_a-findfp.o) (__sclose)
c:/altera/13.0/nios2eds/bin/gnu/h-i686-mingw32/bin/../lib/gcc/nios2-elf/4.1.2/../../../../nios2-elf/lib\libc.a(lib_a-strcmp.o)
                              c:/altera/13.0/nios2eds/bin/gnu/h-i686-mingw32/bin/../lib/gcc/nios2-elf/4.1.2/../../../../nios2-elf/lib\libc.a(lib_a-locale.o) (strcmp)
c:/altera/13.0/nios2eds/bin/gnu/h-i686-mingw32/bin/../lib/gcc/nios2-elf/4.1.2/../../../../nios2-elf/lib\libc.a(lib_a-writer.o)
                              c:/altera/13.0/nios2eds/bin/gnu/h-i686-mingw32/bin/../lib/gcc/nios2-elf/4.1.2/../../../../nios2-elf/lib\libc.a(lib_a-stdio.o) (_write_r)
c:/altera/13.0/nios2eds/bin/gnu/h-i686-mingw32/bin/../lib/gcc/nios2-elf/4.1.2/../../../../nios2-elf/lib\libc.a(lib_a-callocr.o)
                              c:/altera/13.0/nios2eds/bin/gnu/h-i686-mingw32/bin/../lib/gcc/nios2-elf/4.1.2/../../../../nios2-elf/lib\libc.a(lib_a-mprec.o) (_calloc_r)
c:/altera/13.0/nios2eds/bin/gnu/h-i686-mingw32/bin/../lib/gcc/nios2-elf/4.1.2/../../../../nios2-elf/lib\libc.a(lib_a-closer.o)
                              c:/altera/13.0/nios2eds/bin/gnu/h-i686-mingw32/bin/../lib/gcc/nios2-elf/4.1.2/../../../../nios2-elf/lib\libc.a(lib_a-stdio.o) (_close_r)
c:/altera/13.0/nios2eds/bin/gnu/h-i686-mingw32/bin/../lib/gcc/nios2-elf/4.1.2/../../../../nios2-elf/lib\libc.a(lib_a-fclose.o)
                              c:/altera/13.0/nios2eds/bin/gnu/h-i686-mingw32/bin/../lib/gcc/nios2-elf/4.1.2/../../../../nios2-elf/lib\libc.a(lib_a-findfp.o) (fclose)
c:/altera/13.0/nios2eds/bin/gnu/h-i686-mingw32/bin/../lib/gcc/nios2-elf/4.1.2/../../../../nios2-elf/lib\libc.a(lib_a-fstatr.o)
                              c:/altera/13.0/nios2eds/bin/gnu/h-i686-mingw32/bin/../lib/gcc/nios2-elf/4.1.2/../../../../nios2-elf/lib\libc.a(lib_a-makebuf.o) (_fstat_r)
c:/altera/13.0/nios2eds/bin/gnu/h-i686-mingw32/bin/../lib/gcc/nios2-elf/4.1.2/../../../../nios2-elf/lib\libc.a(lib_a-int_errno.o)
                              c:/altera/13.0/nios2eds/bin/gnu/h-i686-mingw32/bin/../lib/gcc/nios2-elf/4.1.2/../../../../nios2-elf/lib\libc.a(lib_a-sbrkr.o) (errno)
c:/altera/13.0/nios2eds/bin/gnu/h-i686-mingw32/bin/../lib/gcc/nios2-elf/4.1.2/../../../../nios2-elf/lib\libc.a(lib_a-isattyr.o)
                              c:/altera/13.0/nios2eds/bin/gnu/h-i686-mingw32/bin/../lib/gcc/nios2-elf/4.1.2/../../../../nios2-elf/lib\libc.a(lib_a-makebuf.o) (_isatty_r)
c:/altera/13.0/nios2eds/bin/gnu/h-i686-mingw32/bin/../lib/gcc/nios2-elf/4.1.2/../../../../nios2-elf/lib\libc.a(lib_a-lseekr.o)
                              c:/altera/13.0/nios2eds/bin/gnu/h-i686-mingw32/bin/../lib/gcc/nios2-elf/4.1.2/../../../../nios2-elf/lib\libc.a(lib_a-stdio.o) (_lseek_r)
c:/altera/13.0/nios2eds/bin/gnu/h-i686-mingw32/bin/../lib/gcc/nios2-elf/4.1.2/../../../../nios2-elf/lib\libc.a(lib_a-readr.o)
                              c:/altera/13.0/nios2eds/bin/gnu/h-i686-mingw32/bin/../lib/gcc/nios2-elf/4.1.2/../../../../nios2-elf/lib\libc.a(lib_a-stdio.o) (_read_r)
c:/altera/13.0/nios2eds/bin/gnu/h-i686-mingw32/bin/../lib/gcc/nios2-elf/4.1.2\libgcc.a(_udivdi3.o)
                              c:/altera/13.0/nios2eds/bin/gnu/h-i686-mingw32/bin/../lib/gcc/nios2-elf/4.1.2/../../../../nios2-elf/lib\libc.a(lib_a-vfprintf.o) (__udivdi3)
c:/altera/13.0/nios2eds/bin/gnu/h-i686-mingw32/bin/../lib/gcc/nios2-elf/4.1.2\libgcc.a(_umoddi3.o)
                              c:/altera/13.0/nios2eds/bin/gnu/h-i686-mingw32/bin/../lib/gcc/nios2-elf/4.1.2/../../../../nios2-elf/lib\libc.a(lib_a-vfprintf.o) (__umoddi3)
c:/altera/13.0/nios2eds/bin/gnu/h-i686-mingw32/bin/../lib/gcc/nios2-elf/4.1.2\libgcc.a(_ne_df.o)
                              c:/altera/13.0/nios2eds/bin/gnu/h-i686-mingw32/bin/../lib/gcc/nios2-elf/4.1.2/../../../../nios2-elf/lib\libc.a(lib_a-vfprintf.o) (__nedf2)
c:/altera/13.0/nios2eds/bin/gnu/h-i686-mingw32/bin/../lib/gcc/nios2-elf/4.1.2\libgcc.a(_gt_df.o)
                              c:/altera/13.0/nios2eds/bin/gnu/h-i686-mingw32/bin/../lib/gcc/nios2-elf/4.1.2/../../../../nios2-elf/lib\libc.a(lib_a-dtoa.o) (__gtdf2)
c:/altera/13.0/nios2eds/bin/gnu/h-i686-mingw32/bin/../lib/gcc/nios2-elf/4.1.2\libgcc.a(_ge_df.o)
                              c:/altera/13.0/nios2eds/bin/gnu/h-i686-mingw32/bin/../lib/gcc/nios2-elf/4.1.2/../../../../nios2-elf/lib\libc.a(lib_a-dtoa.o) (__gedf2)
c:/altera/13.0/nios2eds/bin/gnu/h-i686-mingw32/bin/../lib/gcc/nios2-elf/4.1.2\libgcc.a(_lt_df.o)
                              c:/altera/13.0/nios2eds/bin/gnu/h-i686-mingw32/bin/../lib/gcc/nios2-elf/4.1.2/../../../../nios2-elf/lib\libc.a(lib_a-vfprintf.o) (__ltdf2)
c:/altera/13.0/nios2eds/bin/gnu/h-i686-mingw32/bin/../lib/gcc/nios2-elf/4.1.2\libgcc.a(_df_to_si.o)
                              c:/altera/13.0/nios2eds/bin/gnu/h-i686-mingw32/bin/../lib/gcc/nios2-elf/4.1.2/../../../../nios2-elf/lib\libc.a(lib_a-dtoa.o) (__fixdfsi)
c:/altera/13.0/nios2eds/bin/gnu/h-i686-mingw32/bin/../lib/gcc/nios2-elf/4.1.2\libgcc.a(lib2-divmod.o)
                              c:/altera/13.0/nios2eds/bin/gnu/h-i686-mingw32/bin/../lib/gcc/nios2-elf/4.1.2/../../../../nios2-elf/lib\libc.a(lib_a-vfprintf.o) (__divsi3)
D:/cs723-assignment1/software/freertos_test_bsp/\libhal_bsp.a(alt_close.o)
                              c:/altera/13.0/nios2eds/bin/gnu/h-i686-mingw32/bin/../lib/gcc/nios2-elf/4.1.2/../../../../nios2-elf/lib\libc.a(lib_a-closer.o) (close)
D:/cs723-assignment1/software/freertos_test_bsp/\libhal_bsp.a(alt_dev.o)
                              D:/cs723-assignment1/software/freertos_test_bsp/\libhal_bsp.a(alt_close.o) (alt_fd_list)
D:/cs723-assignment1/software/freertos_test_bsp/\libhal_bsp.a(alt_errno.o)
                              D:/cs723-assignment1/software/freertos_test_bsp/\libhal_bsp.a(alt_close.o) (alt_errno)
D:/cs723-assignment1/software/freertos_test_bsp/\libhal_bsp.a(alt_fstat.o)
                              c:/altera/13.0/nios2eds/bin/gnu/h-i686-mingw32/bin/../lib/gcc/nios2-elf/4.1.2/../../../../nios2-elf/lib\libc.a(lib_a-fstatr.o) (fstat)
D:/cs723-assignment1/software/freertos_test_bsp/\libhal_bsp.a(alt_irq_handler.o)
                              obj/default//D/cs723-assignment1/software/freertos_test/freertos/port_asm.o (alt_irq_handler)
D:/cs723-assignment1/software/freertos_test_bsp/\libhal_bsp.a(alt_irq_vars.o)
                              obj/default//D/cs723-assignment1/software/freertos_test/freertos/port.o (alt_irq_active)
D:/cs723-assignment1/software/freertos_test_bsp/\libhal_bsp.a(alt_isatty.o)
                              c:/altera/13.0/nios2eds/bin/gnu/h-i686-mingw32/bin/../lib/gcc/nios2-elf/4.1.2/../../../../nios2-elf/lib\libc.a(lib_a-isattyr.o) (isatty)
D:/cs723-assignment1/software/freertos_test_bsp/\libhal_bsp.a(alt_lseek.o)
                              c:/altera/13.0/nios2eds/bin/gnu/h-i686-mingw32/bin/../lib/gcc/nios2-elf/4.1.2/../../../../nios2-elf/lib\libc.a(lib_a-lseekr.o) (lseek)
D:/cs723-assignment1/software/freertos_test_bsp/\libhal_bsp.a(alt_main.o)
                              D:/cs723-assignment1/software/freertos_test_bsp//obj/HAL/src/crt0.o (alt_main)
D:/cs723-assignment1/software/freertos_test_bsp/\libhal_bsp.a(alt_malloc_lock.o)
                              c:/altera/13.0/nios2eds/bin/gnu/h-i686-mingw32/bin/../lib/gcc/nios2-elf/4.1.2/../../../../nios2-elf/lib\libc.a(lib_a-freer.o) (__malloc_lock)
D:/cs723-assignment1/software/freertos_test_bsp/\libhal_bsp.a(alt_read.o)
                              c:/altera/13.0/nios2eds/bin/gnu/h-i686-mingw32/bin/../lib/gcc/nios2-elf/4.1.2/../../../../nios2-elf/lib\libc.a(lib_a-readr.o) (read)
D:/cs723-assignment1/software/freertos_test_bsp/\libhal_bsp.a(alt_release_fd.o)
                              D:/cs723-assignment1/software/freertos_test_bsp/\libhal_bsp.a(alt_close.o) (alt_release_fd)
D:/cs723-assignment1/software/freertos_test_bsp/\libhal_bsp.a(alt_sbrk.o)
                              c:/altera/13.0/nios2eds/bin/gnu/h-i686-mingw32/bin/../lib/gcc/nios2-elf/4.1.2/../../../../nios2-elf/lib\libc.a(lib_a-sbrkr.o) (sbrk)
D:/cs723-assignment1/software/freertos_test_bsp/\libhal_bsp.a(alt_write.o)
                              c:/altera/13.0/nios2eds/bin/gnu/h-i686-mingw32/bin/../lib/gcc/nios2-elf/4.1.2/../../../../nios2-elf/lib\libc.a(lib_a-writer.o) (write)
D:/cs723-assignment1/software/freertos_test_bsp/\libhal_bsp.a(alt_sys_init.o)
                              D:/cs723-assignment1/software/freertos_test_bsp/\libhal_bsp.a(alt_main.o) (alt_irq_init)
D:/cs723-assignment1/software/freertos_test_bsp/\libhal_bsp.a(altera_avalon_cfi_flash.o)
                              D:/cs723-assignment1/software/freertos_test_bsp/\libhal_bsp.a(alt_sys_init.o) (alt_flash_cfi_init)
D:/cs723-assignment1/software/freertos_test_bsp/\libhal_bsp.a(altera_avalon_cfi_flash_table.o)
                              D:/cs723-assignment1/software/freertos_test_bsp/\libhal_bsp.a(altera_avalon_cfi_flash.o) (alt_set_flash_width_func)
D:/cs723-assignment1/software/freertos_test_bsp/\libhal_bsp.a(altera_avalon_jtag_uart_fd.o)
                              D:/cs723-assignment1/software/freertos_test_bsp/\libhal_bsp.a(alt_sys_init.o) (altera_avalon_jtag_uart_read_fd)
D:/cs723-assignment1/software/freertos_test_bsp/\libhal_bsp.a(altera_avalon_jtag_uart_init.o)
                              D:/cs723-assignment1/software/freertos_test_bsp/\libhal_bsp.a(alt_sys_init.o) (altera_avalon_jtag_uart_init)
D:/cs723-assignment1/software/freertos_test_bsp/\libhal_bsp.a(altera_avalon_jtag_uart_ioctl.o)
                              D:/cs723-assignment1/software/freertos_test_bsp/\libhal_bsp.a(altera_avalon_jtag_uart_fd.o) (altera_avalon_jtag_uart_ioctl)
D:/cs723-assignment1/software/freertos_test_bsp/\libhal_bsp.a(altera_avalon_jtag_uart_read.o)
                              D:/cs723-assignment1/software/freertos_test_bsp/\libhal_bsp.a(altera_avalon_jtag_uart_fd.o) (altera_avalon_jtag_uart_read)
D:/cs723-assignment1/software/freertos_test_bsp/\libhal_bsp.a(altera_avalon_jtag_uart_write.o)
                              D:/cs723-assignment1/software/freertos_test_bsp/\libhal_bsp.a(altera_avalon_jtag_uart_fd.o) (altera_avalon_jtag_uart_write)
D:/cs723-assignment1/software/freertos_test_bsp/\libhal_bsp.a(altera_avalon_lcd_16207.o)
                              D:/cs723-assignment1/software/freertos_test_bsp/\libhal_bsp.a(alt_sys_init.o) (altera_avalon_lcd_16207_init)
D:/cs723-assignment1/software/freertos_test_bsp/\libhal_bsp.a(altera_avalon_lcd_16207_fd.o)
                              D:/cs723-assignment1/software/freertos_test_bsp/\libhal_bsp.a(alt_sys_init.o) (altera_avalon_lcd_16207_write_fd)
D:/cs723-assignment1/software/freertos_test_bsp/\libhal_bsp.a(altera_avalon_timer_sc.o)
                              D:/cs723-assignment1/software/freertos_test_bsp/\libhal_bsp.a(alt_sys_init.o) (alt_avalon_timer_sc_init)
D:/cs723-assignment1/software/freertos_test_bsp/\libhal_bsp.a(altera_avalon_uart_fd.o)
                              D:/cs723-assignment1/software/freertos_test_bsp/\libhal_bsp.a(alt_sys_init.o) (altera_avalon_uart_read_fd)
D:/cs723-assignment1/software/freertos_test_bsp/\libhal_bsp.a(altera_avalon_uart_init.o)
                              D:/cs723-assignment1/software/freertos_test_bsp/\libhal_bsp.a(alt_sys_init.o) (altera_avalon_uart_init)
D:/cs723-assignment1/software/freertos_test_bsp/\libhal_bsp.a(altera_avalon_uart_read.o)
                              D:/cs723-assignment1/software/freertos_test_bsp/\libhal_bsp.a(altera_avalon_uart_fd.o) (altera_avalon_uart_read)
D:/cs723-assignment1/software/freertos_test_bsp/\libhal_bsp.a(altera_avalon_uart_write.o)
                              D:/cs723-assignment1/software/freertos_test_bsp/\libhal_bsp.a(altera_avalon_uart_fd.o) (altera_avalon_uart_write)
D:/cs723-assignment1/software/freertos_test_bsp/\libhal_bsp.a(altera_up_avalon_ps2.o)
                              D:/cs723-assignment1/software/freertos_test_bsp/\libhal_bsp.a(alt_sys_init.o) (alt_up_ps2_init)
D:/cs723-assignment1/software/freertos_test_bsp/\libhal_bsp.a(altera_up_avalon_video_character_buffer_with_dma.o)
                              D:/cs723-assignment1/software/freertos_test_bsp/\libhal_bsp.a(alt_sys_init.o) (alt_up_char_buffer_init)
D:/cs723-assignment1/software/freertos_test_bsp/\libhal_bsp.a(altera_up_avalon_video_pixel_buffer_dma.o)
                              obj/default//D/cs723-assignment1/software/freertos_test/freertos_test.o (alt_up_pixel_buffer_dma_open_dev)
D:/cs723-assignment1/software/freertos_test_bsp/\libhal_bsp.a(alt_alarm_start.o)
                              D:/cs723-assignment1/software/freertos_test_bsp/\libhal_bsp.a(altera_avalon_jtag_uart_init.o) (alt_alarm_start)
D:/cs723-assignment1/software/freertos_test_bsp/\libhal_bsp.a(alt_dcache_flush.o)
                              D:/cs723-assignment1/software/freertos_test_bsp/\libhal_bsp.a(altera_avalon_cfi_flash.o) (alt_dcache_flush)
D:/cs723-assignment1/software/freertos_test_bsp/\libhal_bsp.a(alt_dev_llist_insert.o)
                              D:/cs723-assignment1/software/freertos_test_bsp/\libhal_bsp.a(alt_sys_init.o) (alt_dev_llist_insert)
D:/cs723-assignment1/software/freertos_test_bsp/\libhal_bsp.a(alt_do_ctors.o)
                              D:/cs723-assignment1/software/freertos_test_bsp/\libhal_bsp.a(alt_main.o) (_do_ctors)
D:/cs723-assignment1/software/freertos_test_bsp/\libhal_bsp.a(alt_do_dtors.o)
                              D:/cs723-assignment1/software/freertos_test_bsp/\libhal_bsp.a(alt_main.o) (_do_dtors)
D:/cs723-assignment1/software/freertos_test_bsp/\libhal_bsp.a(alt_find_dev.o)
                              D:/cs723-assignment1/software/freertos_test_bsp/\libhal_bsp.a(altera_up_avalon_ps2.o) (alt_find_dev)
D:/cs723-assignment1/software/freertos_test_bsp/\libhal_bsp.a(alt_flash_dev.o)
                              D:/cs723-assignment1/software/freertos_test_bsp/\libhal_bsp.a(altera_avalon_cfi_flash.o) (alt_flash_dev_list)
D:/cs723-assignment1/software/freertos_test_bsp/\libhal_bsp.a(alt_io_redirect.o)
                              D:/cs723-assignment1/software/freertos_test_bsp/\libhal_bsp.a(alt_main.o) (alt_io_redirect)
D:/cs723-assignment1/software/freertos_test_bsp/\libhal_bsp.a(alt_open.o)
                              D:/cs723-assignment1/software/freertos_test_bsp/\libhal_bsp.a(alt_io_redirect.o) (open)
D:/cs723-assignment1/software/freertos_test_bsp/\libhal_bsp.a(alt_tick.o)
                              D:/cs723-assignment1/software/freertos_test_bsp/\libhal_bsp.a(altera_avalon_jtag_uart_init.o) (_alt_tick_rate)
D:/cs723-assignment1/software/freertos_test_bsp/\libhal_bsp.a(alt_usleep.o)
                              D:/cs723-assignment1/software/freertos_test_bsp/\libhal_bsp.a(altera_avalon_lcd_16207.o) (usleep)
D:/cs723-assignment1/software/freertos_test_bsp/\libhal_bsp.a(altera_nios2_qsys_irq.o)
                              D:/cs723-assignment1/software/freertos_test_bsp/\libhal_bsp.a(alt_sys_init.o) (altera_nios2_qsys_irq_init)
D:/cs723-assignment1/software/freertos_test_bsp/\libhal_bsp.a(altera_avalon_cfi_flash_amd.o)
                              D:/cs723-assignment1/software/freertos_test_bsp/\libhal_bsp.a(altera_avalon_cfi_flash_table.o) (alt_program_amd)
D:/cs723-assignment1/software/freertos_test_bsp/\libhal_bsp.a(altera_avalon_cfi_flash_intel.o)
                              D:/cs723-assignment1/software/freertos_test_bsp/\libhal_bsp.a(altera_avalon_cfi_flash_table.o) (alt_program_intel)
D:/cs723-assignment1/software/freertos_test_bsp/\libhal_bsp.a(alt_busy_sleep.o)
                              D:/cs723-assignment1/software/freertos_test_bsp/\libhal_bsp.a(alt_usleep.o) (alt_busy_sleep)
D:/cs723-assignment1/software/freertos_test_bsp/\libhal_bsp.a(alt_find_file.o)
                              D:/cs723-assignment1/software/freertos_test_bsp/\libhal_bsp.a(alt_open.o) (alt_find_file)
D:/cs723-assignment1/software/freertos_test_bsp/\libhal_bsp.a(alt_get_fd.o)
                              D:/cs723-assignment1/software/freertos_test_bsp/\libhal_bsp.a(alt_open.o) (alt_get_fd)
c:/altera/13.0/nios2eds/bin/gnu/h-i686-mingw32/bin/../lib/gcc/nios2-elf/4.1.2/../../../../nios2-elf/lib\libc.a(lib_a-atexit.o)
                              D:/cs723-assignment1/software/freertos_test_bsp/\libhal_bsp.a(alt_main.o) (atexit)
c:/altera/13.0/nios2eds/bin/gnu/h-i686-mingw32/bin/../lib/gcc/nios2-elf/4.1.2/../../../../nios2-elf/lib\libc.a(lib_a-ctype_.o)
                              D:/cs723-assignment1/software/freertos_test_bsp/\libhal_bsp.a(altera_avalon_lcd_16207.o) (__ctype_ptr)
c:/altera/13.0/nios2eds/bin/gnu/h-i686-mingw32/bin/../lib/gcc/nios2-elf/4.1.2/../../../../nios2-elf/lib\libc.a(lib_a-exit.o)
                              D:/cs723-assignment1/software/freertos_test_bsp/\libhal_bsp.a(alt_main.o) (exit)
c:/altera/13.0/nios2eds/bin/gnu/h-i686-mingw32/bin/../lib/gcc/nios2-elf/4.1.2/../../../../nios2-elf/lib\libc.a(lib_a-__atexit.o)
                              c:/altera/13.0/nios2eds/bin/gnu/h-i686-mingw32/bin/../lib/gcc/nios2-elf/4.1.2/../../../../nios2-elf/lib\libc.a(lib_a-atexit.o) (__register_exitproc)
c:/altera/13.0/nios2eds/bin/gnu/h-i686-mingw32/bin/../lib/gcc/nios2-elf/4.1.2/../../../../nios2-elf/lib\libc.a(lib_a-__call_atexit.o)
                              c:/altera/13.0/nios2eds/bin/gnu/h-i686-mingw32/bin/../lib/gcc/nios2-elf/4.1.2/../../../../nios2-elf/lib\libc.a(lib_a-exit.o) (__call_exitprocs)
D:/cs723-assignment1/software/freertos_test_bsp/\libhal_bsp.a(alt_exit.o)
                              c:/altera/13.0/nios2eds/bin/gnu/h-i686-mingw32/bin/../lib/gcc/nios2-elf/4.1.2/../../../../nios2-elf/lib\libc.a(lib_a-exit.o) (_exit)

Allocating common symbols
Common symbol       size              file

alt_irq             0x100             D:/cs723-assignment1/software/freertos_test_bsp/\libhal_bsp.a(alt_irq_handler.o)
freq_buffer_sem     0x4               obj/default//D/cs723-assignment1/software/freertos_test/freertos_test.o
errno               0x4               c:/altera/13.0/nios2eds/bin/gnu/h-i686-mingw32/bin/../lib/gcc/nios2-elf/4.1.2/../../../../nios2-elf/lib\libc.a(lib_a-int_errno.o)
_atexit0            0x190             c:/altera/13.0/nios2eds/bin/gnu/h-i686-mingw32/bin/../lib/gcc/nios2-elf/4.1.2/../../../../nios2-elf/lib\libc.a(lib_a-atexit.o)
HW_dataQ            0x4               obj/default//D/cs723-assignment1/software/freertos_test/freertos_test.o

Memory Configuration

Name             Origin             Length             Attributes
onchip_memory_BEFORE_EXCEPTION 0x00000000         0x00000020
onchip_memory    0x00000020         0x00031fe0
reset            0x01000000         0x00000020
flash_controller 0x01000020         0x007fffe0
sdram            0x08000000         0x08000000
*default*        0x00000000         0xffffffff

Linker script and memory map

LOAD D:/cs723-assignment1/software/freertos_test_bsp//obj/HAL/src/crt0.o
LOAD obj/default//D/cs723-assignment1/software/freertos_test/freertos/croutine.o
LOAD obj/default//D/cs723-assignment1/software/freertos_test/freertos/event_groups.o
LOAD obj/default//D/cs723-assignment1/software/freertos_test/freertos/heap.o
LOAD obj/default//D/cs723-assignment1/software/freertos_test/freertos/list.o
LOAD obj/default//D/cs723-assignment1/software/freertos_test/freertos/port.o
LOAD obj/default//D/cs723-assignment1/software/freertos_test/freertos/queue.o
LOAD obj/default//D/cs723-assignment1/software/freertos_test/freertos/tasks.o
LOAD obj/default//D/cs723-assignment1/software/freertos_test/freertos/timers.o
LOAD obj/default//D/cs723-assignment1/software/freertos_test/freertos_test.o
LOAD obj/default//D/cs723-assignment1/software/freertos_test/freertos/port_asm.o
LOAD c:/altera/13.0/nios2eds/bin/gnu/h-i686-mingw32/bin/../lib/gcc/nios2-elf/4.1.2/../../../../nios2-elf/lib\libstdc++.a
LOAD c:/altera/13.0/nios2eds/bin/gnu/h-i686-mingw32/bin/../lib/gcc/nios2-elf/4.1.2/../../../../nios2-elf/lib\libm.a
LOAD c:/altera/13.0/nios2eds/bin/gnu/h-i686-mingw32/bin/../lib/gcc/nios2-elf/4.1.2\libgcc.a
START GROUP
LOAD c:/altera/13.0/nios2eds/bin/gnu/h-i686-mingw32/bin/../lib/gcc/nios2-elf/4.1.2/../../../../nios2-elf/lib\libc.a
LOAD c:/altera/13.0/nios2eds/bin/gnu/h-i686-mingw32/bin/../lib/gcc/nios2-elf/4.1.2\libgcc.a
LOAD D:/cs723-assignment1/software/freertos_test_bsp/\libhal_bsp.a
END GROUP
LOAD c:/altera/13.0/nios2eds/bin/gnu/h-i686-mingw32/bin/../lib/gcc/nios2-elf/4.1.2\libgcc.a
                0x00000000                __alt_mem_onchip_memory = 0x0
                0x01000000                __alt_mem_flash_controller = 0x1000000
                0x08000000                __alt_mem_sdram = 0x8000000

.entry          0x01000000        0x0
 *(.entry)
 .entry         0x01000000        0x0 D:/cs723-assignment1/software/freertos_test_bsp//obj/HAL/src/crt0.o
                0x01000000                __reset

.exceptions     0x00000020      0x228
                0x00000020                PROVIDE (__ram_exceptions_start, ABSOLUTE (.))
                0x00000020                . = ALIGN (0x20)
 *(.irq)
 *(.exceptions.entry.label)
 *(.exceptions.entry.user)
 *(.exceptions.entry)
 .exceptions.entry
                0x00000020       0x8c obj/default//D/cs723-assignment1/software/freertos_test/freertos/port_asm.o
 *(.exceptions.irqtest.user)
 *(.exceptions.irqtest)
 .exceptions.irqtest
                0x000000ac       0x14 obj/default//D/cs723-assignment1/software/freertos_test/freertos/port_asm.o
 *(.exceptions.irqhandler.user)
 *(.exceptions.irqhandler)
 .exceptions.irqhandler
                0x000000c0        0x4 obj/default//D/cs723-assignment1/software/freertos_test/freertos/port_asm.o
 *(.exceptions.irqreturn.user)
 *(.exceptions.irqreturn)
 .exceptions.irqreturn
                0x000000c4       0x8c obj/default//D/cs723-assignment1/software/freertos_test/freertos/port_asm.o
                0x000000c4                restore_sp_from_pxCurrentTCB
 *(.exceptions.notirq.label)
 *(.exceptions.notirq.user)
 *(.exceptions.notirq)
 *(.exceptions.soft.user)
 *(.exceptions.soft)
 .exceptions.soft
                0x00000150       0x2c obj/default//D/cs723-assignment1/software/freertos_test/freertos/port_asm.o
 *(.exceptions.unknown.user)
 *(.exceptions.unknown)
 *(.exceptions.exit.label)
 *(.exceptions.exit.user)
 *(.exceptions.exit)
 *(.exceptions)
 .exceptions    0x0000017c       0xcc D:/cs723-assignment1/software/freertos_test_bsp/\libhal_bsp.a(alt_irq_handler.o)
                0x0000017c                alt_irq_handler
                0x00000248                PROVIDE (__ram_exceptions_end, ABSOLUTE (.))
                0x00000020                PROVIDE (__flash_exceptions_start, LOADADDR (.exceptions))

.text           0x00000248    0x17624
                0x00000248                PROVIDE (stext, ABSOLUTE (.))
 *(.interp)
 *(.hash)
 *(.dynsym)
 *(.dynstr)
 *(.gnu.version)
 *(.gnu.version_d)
 *(.gnu.version_r)
 *(.rel.init)
 *(.rela.init)
 *(.rel.text .rel.text.* .rel.gnu.linkonce.t.*)
 *(.rela.text .rela.text.* .rela.gnu.linkonce.t.*)
 *(.rel.fini)
 *(.rela.fini)
 *(.rel.rodata .rel.rodata.* .rel.gnu.linkonce.r.*)
 *(.rela.rodata .rela.rodata.* .rela.gnu.linkonce.r.*)
 *(.rel.data .rel.data.* .rel.gnu.linkonce.d.*)
 *(.rela.data .rela.data.* .rela.gnu.linkonce.d.*)
 *(.rel.tdata .rel.tdata.* .rel.gnu.linkonce.td.*)
 *(.rela.tdata .rela.tdata.* .rela.gnu.linkonce.td.*)
 *(.rel.tbss .rel.tbss.* .rel.gnu.linkonce.tb.*)
 *(.rela.tbss .rela.tbss.* .rela.gnu.linkonce.tb.*)
 *(.rel.ctors)
 *(.rela.ctors)
 *(.rel.dtors)
 *(.rela.dtors)
 *(.rel.got)
 *(.rela.got)
 *(.rel.sdata .rel.sdata.* .rel.gnu.linkonce.s.*)
 *(.rela.sdata .rela.sdata.* .rela.gnu.linkonce.s.*)
 *(.rel.sbss .rel.sbss.* .rel.gnu.linkonce.sb.*)
 *(.rela.sbss .rela.sbss.* .rela.gnu.linkonce.sb.*)
 *(.rel.sdata2 .rel.sdata2.* .rel.gnu.linkonce.s2.*)
 *(.rela.sdata2 .rela.sdata2.* .rela.gnu.linkonce.s2.*)
 *(.rel.sbss2 .rel.sbss2.* .rel.gnu.linkonce.sb2.*)
 *(.rela.sbss2 .rela.sbss2.* .rela.gnu.linkonce.sb2.*)
 *(.rel.bss .rel.bss.* .rel.gnu.linkonce.b.*)
 *(.rela.bss .rela.bss.* .rela.gnu.linkonce.b.*)
 *(.rel.plt)
 *(.rela.plt)
 *(.rel.dyn)
 *(.init)
 *(.plt)
 *(.text .stub .text.* .gnu.linkonce.t.*)
 .text          0x00000248       0x48 D:/cs723-assignment1/software/freertos_test_bsp//obj/HAL/src/crt0.o
                0x00000248                _start
 .text          0x00000290      0x60c obj/default//D/cs723-assignment1/software/freertos_test/freertos/croutine.o
                0x00000290                xCoRoutineCreate
                0x000003d0                vCoRoutineAddToDelayedList
                0x00000694                vCoRoutineSchedule
                0x0000081c                xCoRoutineRemoveFromEventList
 .text          0x0000089c      0x720 obj/default//D/cs723-assignment1/software/freertos_test/freertos/event_groups.o
                0x0000089c                xEventGroupCreate
                0x000008f0                xEventGroupSync
                0x00000a74                xEventGroupWaitBits
                0x00000c34                xEventGroupClearBits
                0x00000c9c                xEventGroupGetBitsFromISR
                0x00000cd8                xEventGroupSetBits
                0x00000e64                vEventGroupDelete
                0x00000ed4                vEventGroupSetBitsCallback
                0x00000f0c                vEventGroupClearBitsCallback
 .text          0x00000fbc      0x448 obj/default//D/cs723-assignment1/software/freertos_test/freertos/heap.o
                0x00000fbc                pvPortMalloc
                0x00001150                vPortFree
                0x000011d0                xPortGetFreeHeapSize
                0x000011f0                vPortInitialiseBlocks
 .text          0x00001404      0x28c obj/default//D/cs723-assignment1/software/freertos_test/freertos/list.o
                0x00001404                vListInitialise
                0x00001474                vListInitialiseItem
                0x0000149c                vListInsertEnd
                0x00001524                vListInsert
                0x000015f8                uxListRemove
 .text          0x00001690      0x434 obj/default//D/cs723-assignment1/software/freertos_test/freertos/port.o
                0x00001690                vApplicationStackOverflowHook
                0x000016f4                pxPortInitialiseStack
                0x000017dc                xPortStartScheduler
                0x00001814                vPortEndScheduler
                0x000018c8                vPortSysTickHandler
                0x00001914                alt_irq_register
 .text          0x00001ac4     0x1134 obj/default//D/cs723-assignment1/software/freertos_test/freertos/queue.o
                0x00001ac4                xQueueGenericReset
                0x00001bd8                xQueueGenericCreate
                0x00001cb4                xQueueCreateMutex
                0x00001d78                xQueueGiveMutexRecursive
                0x00001e0c                xQueueTakeMutexRecursive
                0x00001eb4                xQueueCreateCountingSemaphore
                0x00001f10                xQueueGenericSend
                0x000020c0                xQueueGenericSendFromISR
                0x000021a8                xQueueGiveFromISR
                0x00002280                xQueueGenericReceive
                0x000024ac                xQueueReceiveFromISR
                0x00002590                xQueuePeekFromISR
                0x00002610                uxQueueMessagesWaiting
                0x00002650                uxQueueSpacesAvailable
                0x000026a4                uxQueueMessagesWaitingFromISR
                0x000026d4                vQueueDelete
                0x00002a80                xQueueIsQueueEmptyFromISR
                0x00002b1c                xQueueIsQueueFullFromISR
                0x00002b64                vQueueWaitForMessageRestricted
 .text          0x00002bf8     0x1c94 obj/default//D/cs723-assignment1/software/freertos_test/freertos/tasks.o
                0x00002bf8                xTaskGenericCreate
                0x00002dc0                vTaskDelete
                0x00002e98                vTaskDelay
                0x00002f10                vTaskStartScheduler
                0x00002fac                vTaskEndScheduler
                0x00002ff0                vTaskSuspendAll
                0x00003018                xTaskResumeAll
                0x00003168                xTaskGetTickCount
                0x00003190                xTaskGetTickCountFromISR
                0x000031bc                uxTaskGetNumberOfTasks
                0x000031dc                xTaskIncrementTick
                0x000033b8                vTaskSwitchContext
                0x000034e8                vTaskPlaceOnEventList
                0x00003548                vTaskPlaceOnUnorderedEventList
                0x000035bc                vTaskPlaceOnEventListRestricted
                0x0000361c                xTaskRemoveFromEventList
                0x00003704                xTaskRemoveFromUnorderedEventList
                0x000037d4                vTaskSetTimeOutState
                0x0000380c                xTaskCheckForTimeOut
                0x000038d0                vTaskMissedYield
                0x00003d50                uxTaskGetStackHighWaterMark
                0x00003e6c                xTaskGetCurrentTaskHandle
                0x00003e94                xTaskGetSchedulerState
                0x00003ee8                vTaskPriorityInherit
                0x00004018                xTaskPriorityDisinherit
                0x00004114                vTaskEnterCritical
                0x00004168                vTaskExitCritical
                0x000041d0                uxTaskResetEventItemValue
                0x00004214                pvTaskIncrementMutexHeldCount
                0x00004250                ulTaskNotifyTake
                0x00004328                xTaskNotifyWait
                0x00004434                xTaskNotify
                0x000045bc                xTaskNotifyFromISR
                0x0000477c                vTaskNotifyGiveFromISR
 .text          0x0000488c      0x8b0 obj/default//D/cs723-assignment1/software/freertos_test/freertos/timers.o
                0x0000488c                xTimerCreateTimerTask
                0x000048fc                xTimerCreate
                0x000049ac                xTimerGenericCommand
                0x00004a74                pcTimerGetTimerName
                0x000050c0                xTimerIsTimerActive
                0x0000510c                pvTimerGetTimerID
 .text          0x0000513c      0x5d8 obj/default//D/cs723-assignment1/software/freertos_test/freertos_test.o
                0x0000513c                freq_relay
                0x00005378                VGA_Task
                0x00005634                initOSDataStructs
                0x0000567c                main
                0x000056bc                initCreateTasks
 .text          0x00005714        0x0 obj/default//D/cs723-assignment1/software/freertos_test/freertos/port_asm.o
 .text          0x00005714      0x504 c:/altera/13.0/nios2eds/bin/gnu/h-i686-mingw32/bin/../lib/gcc/nios2-elf/4.1.2\libgcc.a(_addsub_df.o)
                0x00005b24                __subdf3
                0x00005ba4                __adddf3
 .text          0x00005c18      0x3c4 c:/altera/13.0/nios2eds/bin/gnu/h-i686-mingw32/bin/../lib/gcc/nios2-elf/4.1.2\libgcc.a(_mul_df.o)
                0x00005c18                __muldf3
 .text          0x00005fdc      0x258 c:/altera/13.0/nios2eds/bin/gnu/h-i686-mingw32/bin/../lib/gcc/nios2-elf/4.1.2\libgcc.a(_div_df.o)
                0x00005fdc                __divdf3
 .text          0x00006234       0x88 c:/altera/13.0/nios2eds/bin/gnu/h-i686-mingw32/bin/../lib/gcc/nios2-elf/4.1.2\libgcc.a(_eq_df.o)
                0x00006234                __eqdf2
 .text          0x000062bc       0xf8 c:/altera/13.0/nios2eds/bin/gnu/h-i686-mingw32/bin/../lib/gcc/nios2-elf/4.1.2\libgcc.a(_si_to_df.o)
                0x000062bc                __floatsidf
 .text          0x000063b4        0x0 c:/altera/13.0/nios2eds/bin/gnu/h-i686-mingw32/bin/../lib/gcc/nios2-elf/4.1.2\libgcc.a(_thenan_df.o)
 .text          0x000063b4      0x194 c:/altera/13.0/nios2eds/bin/gnu/h-i686-mingw32/bin/../lib/gcc/nios2-elf/4.1.2\libgcc.a(_usi_to_df.o)
                0x000063b4                __floatunsidf
 .text          0x00006548       0x98 c:/altera/13.0/nios2eds/bin/gnu/h-i686-mingw32/bin/../lib/gcc/nios2-elf/4.1.2\libgcc.a(_muldi3.o)
                0x00006548                __muldi3
 .text          0x000065e0       0x80 c:/altera/13.0/nios2eds/bin/gnu/h-i686-mingw32/bin/../lib/gcc/nios2-elf/4.1.2\libgcc.a(_clzsi2.o)
                0x000065e0                __clzsi2
 .text          0x00006660      0x314 c:/altera/13.0/nios2eds/bin/gnu/h-i686-mingw32/bin/../lib/gcc/nios2-elf/4.1.2\libgcc.a(_pack_df.o)
                0x00006660                __pack_d
 .text          0x00006974      0x138 c:/altera/13.0/nios2eds/bin/gnu/h-i686-mingw32/bin/../lib/gcc/nios2-elf/4.1.2\libgcc.a(_unpack_df.o)
                0x00006974                __unpack_d
 .text          0x00006aac       0xc8 c:/altera/13.0/nios2eds/bin/gnu/h-i686-mingw32/bin/../lib/gcc/nios2-elf/4.1.2\libgcc.a(_fpcmp_parts_df.o)
                0x00006aac                __fpcmp_parts_d
 .text          0x00006b74        0x0 c:/altera/13.0/nios2eds/bin/gnu/h-i686-mingw32/bin/../lib/gcc/nios2-elf/4.1.2\libgcc.a(_clz.o)
 .text          0x00006b74       0x74 c:/altera/13.0/nios2eds/bin/gnu/h-i686-mingw32/bin/../lib/gcc/nios2-elf/4.1.2/../../../../nios2-elf/lib\libc.a(lib_a-memcmp.o)
                0x00006b74                memcmp
 .text          0x00006be8       0xa0 c:/altera/13.0/nios2eds/bin/gnu/h-i686-mingw32/bin/../lib/gcc/nios2-elf/4.1.2/../../../../nios2-elf/lib\libc.a(lib_a-memcpy.o)
                0x00006be8                memcpy
 .text          0x00006c88       0x98 c:/altera/13.0/nios2eds/bin/gnu/h-i686-mingw32/bin/../lib/gcc/nios2-elf/4.1.2/../../../../nios2-elf/lib\libc.a(lib_a-memset.o)
                0x00006c88                memset
 .text          0x00006d20       0x78 c:/altera/13.0/nios2eds/bin/gnu/h-i686-mingw32/bin/../lib/gcc/nios2-elf/4.1.2/../../../../nios2-elf/lib\libc.a(lib_a-printf.o)
                0x00006d20                printf
                0x00006d64                _printf_r
 .text          0x00006d98       0xb4 c:/altera/13.0/nios2eds/bin/gnu/h-i686-mingw32/bin/../lib/gcc/nios2-elf/4.1.2/../../../../nios2-elf/lib\libc.a(lib_a-puts.o)
                0x00006d98                _puts_r
                0x00006e38                puts
 .text          0x00006e4c       0x74 c:/altera/13.0/nios2eds/bin/gnu/h-i686-mingw32/bin/../lib/gcc/nios2-elf/4.1.2/../../../../nios2-elf/lib\libc.a(lib_a-strlen.o)
                0x00006e4c                strlen
 .text          0x00006ec0     0x1f28 c:/altera/13.0/nios2eds/bin/gnu/h-i686-mingw32/bin/../lib/gcc/nios2-elf/4.1.2/../../../../nios2-elf/lib\libc.a(lib_a-vfprintf.o)
                0x00006f18                ___vfprintf_internal_r
                0x00008dc4                __vfprintf_internal
 .text          0x00008de8      0x13c c:/altera/13.0/nios2eds/bin/gnu/h-i686-mingw32/bin/../lib/gcc/nios2-elf/4.1.2/../../../../nios2-elf/lib\libc.a(lib_a-wsetup.o)
                0x00008de8                __swsetup_r
 .text          0x00008f24     0x17cc c:/altera/13.0/nios2eds/bin/gnu/h-i686-mingw32/bin/../lib/gcc/nios2-elf/4.1.2/../../../../nios2-elf/lib\libc.a(lib_a-dtoa.o)
                0x0000913c                _dtoa_r
 .text          0x0000a6f0      0x230 c:/altera/13.0/nios2eds/bin/gnu/h-i686-mingw32/bin/../lib/gcc/nios2-elf/4.1.2/../../../../nios2-elf/lib\libc.a(lib_a-fflush.o)
                0x0000a6f0                _fflush_r
                0x0000a8ec                fflush
 .text          0x0000a920      0x2c0 c:/altera/13.0/nios2eds/bin/gnu/h-i686-mingw32/bin/../lib/gcc/nios2-elf/4.1.2/../../../../nios2-elf/lib\libc.a(lib_a-findfp.o)
                0x0000a978                __sfp_lock_acquire
                0x0000a97c                __sfp_lock_release
                0x0000a980                __sinit_lock_acquire
                0x0000a984                __sinit_lock_release
                0x0000a988                __sinit
                0x0000aa3c                __fp_unlock_all
                0x0000aa54                __fp_lock_all
                0x0000aa6c                _cleanup_r
                0x0000aa78                _cleanup
                0x0000aa88                __sfmoreglue
                0x0000aaf0                __sfp
 .text          0x0000abe0      0x440 c:/altera/13.0/nios2eds/bin/gnu/h-i686-mingw32/bin/../lib/gcc/nios2-elf/4.1.2/../../../../nios2-elf/lib\libc.a(lib_a-freer.o)
                0x0000abe0                _malloc_trim_r
                0x0000ad0c                _free_r
 .text          0x0000b020      0x49c c:/altera/13.0/nios2eds/bin/gnu/h-i686-mingw32/bin/../lib/gcc/nios2-elf/4.1.2/../../../../nios2-elf/lib\libc.a(lib_a-fvwrite.o)
                0x0000b020                __sfvwrite_r
 .text          0x0000b4bc      0x180 c:/altera/13.0/nios2eds/bin/gnu/h-i686-mingw32/bin/../lib/gcc/nios2-elf/4.1.2/../../../../nios2-elf/lib\libc.a(lib_a-fwalk.o)
                0x0000b4bc                _fwalk_reent
                0x0000b584                _fwalk
 .text          0x0000b63c        0x0 c:/altera/13.0/nios2eds/bin/gnu/h-i686-mingw32/bin/../lib/gcc/nios2-elf/4.1.2/../../../../nios2-elf/lib\libc.a(lib_a-impure.o)
 .text          0x0000b63c       0xc4 c:/altera/13.0/nios2eds/bin/gnu/h-i686-mingw32/bin/../lib/gcc/nios2-elf/4.1.2/../../../../nios2-elf/lib\libc.a(lib_a-locale.o)
                0x0000b63c                __locale_charset
                0x0000b644                _localeconv_r
                0x0000b650                localeconv
                0x0000b660                _setlocale_r
                0x0000b6e4                setlocale
 .text          0x0000b700      0x194 c:/altera/13.0/nios2eds/bin/gnu/h-i686-mingw32/bin/../lib/gcc/nios2-elf/4.1.2/../../../../nios2-elf/lib\libc.a(lib_a-makebuf.o)
                0x0000b700                __smakebuf_r
 .text          0x0000b894      0x740 c:/altera/13.0/nios2eds/bin/gnu/h-i686-mingw32/bin/../lib/gcc/nios2-elf/4.1.2/../../../../nios2-elf/lib\libc.a(lib_a-mallocr.o)
                0x0000b894                _malloc_r
 .text          0x0000bfd4       0xe4 c:/altera/13.0/nios2eds/bin/gnu/h-i686-mingw32/bin/../lib/gcc/nios2-elf/4.1.2/../../../../nios2-elf/lib\libc.a(lib_a-memchr.o)
                0x0000bfd4                memchr
 .text          0x0000c0b8       0xe0 c:/altera/13.0/nios2eds/bin/gnu/h-i686-mingw32/bin/../lib/gcc/nios2-elf/4.1.2/../../../../nios2-elf/lib\libc.a(lib_a-memmove.o)
                0x0000c0b8                memmove
 .text          0x0000c198      0xff4 c:/altera/13.0/nios2eds/bin/gnu/h-i686-mingw32/bin/../lib/gcc/nios2-elf/4.1.2/../../../../nios2-elf/lib\libc.a(lib_a-mprec.o)
                0x0000c198                _Bfree
                0x0000c1c0                __hi0bits
                0x0000c230                __lo0bits
                0x0000c2f4                __mcmp
                0x0000c354                __ulp
                0x0000c3d4                __b2d
                0x0000c4f4                __ratio
                0x0000c5a4                _mprec_log10
                0x0000c638                __copybits
                0x0000c690                __any_on
                0x0000c718                _Balloc
                0x0000c7d4                __d2b
                0x0000c950                __mdiff
                0x0000cadc                __lshift
                0x0000cc28                __multiply
                0x0000ce10                __i2b
                0x0000ce4c                __multadd
                0x0000cf4c                __pow5mult
                0x0000d06c                __s2b
 .text          0x0000d18c      0x5f4 c:/altera/13.0/nios2eds/bin/gnu/h-i686-mingw32/bin/../lib/gcc/nios2-elf/4.1.2/../../../../nios2-elf/lib\libc.a(lib_a-reallocr.o)
                0x0000d18c                _realloc_r
 .text          0x0000d780       0x40 c:/altera/13.0/nios2eds/bin/gnu/h-i686-mingw32/bin/../lib/gcc/nios2-elf/4.1.2/../../../../nios2-elf/lib\libc.a(lib_a-s_isinfd.o)
                0x0000d780                __isinfd
 .text          0x0000d7c0       0x30 c:/altera/13.0/nios2eds/bin/gnu/h-i686-mingw32/bin/../lib/gcc/nios2-elf/4.1.2/../../../../nios2-elf/lib\libc.a(lib_a-s_isnand.o)
                0x0000d7c0                __isnand
 .text          0x0000d7f0       0x70 c:/altera/13.0/nios2eds/bin/gnu/h-i686-mingw32/bin/../lib/gcc/nios2-elf/4.1.2/../../../../nios2-elf/lib\libc.a(lib_a-sbrkr.o)
                0x0000d7f0                _sbrk_r
 .text          0x0000d860      0x14c c:/altera/13.0/nios2eds/bin/gnu/h-i686-mingw32/bin/../lib/gcc/nios2-elf/4.1.2/../../../../nios2-elf/lib\libc.a(lib_a-stdio.o)
                0x0000d860                __sclose
                0x0000d868                __sseek
                0x0000d8d0                __swrite
                0x0000d94c                __sread
 .text          0x0000d9ac       0xbc c:/altera/13.0/nios2eds/bin/gnu/h-i686-mingw32/bin/../lib/gcc/nios2-elf/4.1.2/../../../../nios2-elf/lib\libc.a(lib_a-strcmp.o)
                0x0000d9ac                strcmp
 .text          0x0000da68       0x78 c:/altera/13.0/nios2eds/bin/gnu/h-i686-mingw32/bin/../lib/gcc/nios2-elf/4.1.2/../../../../nios2-elf/lib\libc.a(lib_a-writer.o)
                0x0000da68                _write_r
 .text          0x0000dae0       0xb4 c:/altera/13.0/nios2eds/bin/gnu/h-i686-mingw32/bin/../lib/gcc/nios2-elf/4.1.2/../../../../nios2-elf/lib\libc.a(lib_a-callocr.o)
                0x0000dae0                _calloc_r
 .text          0x0000db94       0x70 c:/altera/13.0/nios2eds/bin/gnu/h-i686-mingw32/bin/../lib/gcc/nios2-elf/4.1.2/../../../../nios2-elf/lib\libc.a(lib_a-closer.o)
                0x0000db94                _close_r
 .text          0x0000dc04      0x124 c:/altera/13.0/nios2eds/bin/gnu/h-i686-mingw32/bin/../lib/gcc/nios2-elf/4.1.2/../../../../nios2-elf/lib\libc.a(lib_a-fclose.o)
                0x0000dc04                _fclose_r
                0x0000dd14                fclose
 .text          0x0000dd28       0x74 c:/altera/13.0/nios2eds/bin/gnu/h-i686-mingw32/bin/../lib/gcc/nios2-elf/4.1.2/../../../../nios2-elf/lib\libc.a(lib_a-fstatr.o)
                0x0000dd28                _fstat_r
 .text          0x0000dd9c        0x0 c:/altera/13.0/nios2eds/bin/gnu/h-i686-mingw32/bin/../lib/gcc/nios2-elf/4.1.2/../../../../nios2-elf/lib\libc.a(lib_a-int_errno.o)
 .text          0x0000dd9c       0x70 c:/altera/13.0/nios2eds/bin/gnu/h-i686-mingw32/bin/../lib/gcc/nios2-elf/4.1.2/../../../../nios2-elf/lib\libc.a(lib_a-isattyr.o)
                0x0000dd9c                _isatty_r
 .text          0x0000de0c       0x78 c:/altera/13.0/nios2eds/bin/gnu/h-i686-mingw32/bin/../lib/gcc/nios2-elf/4.1.2/../../../../nios2-elf/lib\libc.a(lib_a-lseekr.o)
                0x0000de0c                _lseek_r
 .text          0x0000de84       0x78 c:/altera/13.0/nios2eds/bin/gnu/h-i686-mingw32/bin/../lib/gcc/nios2-elf/4.1.2/../../../../nios2-elf/lib\libc.a(lib_a-readr.o)
                0x0000de84                _read_r
 .text          0x0000defc      0x5dc c:/altera/13.0/nios2eds/bin/gnu/h-i686-mingw32/bin/../lib/gcc/nios2-elf/4.1.2\libgcc.a(_udivdi3.o)
                0x0000defc                __udivdi3
 .text          0x0000e4d8      0x5b0 c:/altera/13.0/nios2eds/bin/gnu/h-i686-mingw32/bin/../lib/gcc/nios2-elf/4.1.2\libgcc.a(_umoddi3.o)
                0x0000e4d8                __umoddi3
 .text          0x0000ea88       0x88 c:/altera/13.0/nios2eds/bin/gnu/h-i686-mingw32/bin/../lib/gcc/nios2-elf/4.1.2\libgcc.a(_ne_df.o)
                0x0000ea88                __nedf2
 .text          0x0000eb10       0x88 c:/altera/13.0/nios2eds/bin/gnu/h-i686-mingw32/bin/../lib/gcc/nios2-elf/4.1.2\libgcc.a(_gt_df.o)
                0x0000eb10                __gtdf2
 .text          0x0000eb98       0x88 c:/altera/13.0/nios2eds/bin/gnu/h-i686-mingw32/bin/../lib/gcc/nios2-elf/4.1.2\libgcc.a(_ge_df.o)
                0x0000eb98                __gedf2
 .text          0x0000ec20       0x88 c:/altera/13.0/nios2eds/bin/gnu/h-i686-mingw32/bin/../lib/gcc/nios2-elf/4.1.2\libgcc.a(_lt_df.o)
                0x0000ec20                __ltdf2
 .text          0x0000eca8       0xd8 c:/altera/13.0/nios2eds/bin/gnu/h-i686-mingw32/bin/../lib/gcc/nios2-elf/4.1.2\libgcc.a(_df_to_si.o)
                0x0000eca8                __fixdfsi
 .text          0x0000ed80      0x14c c:/altera/13.0/nios2eds/bin/gnu/h-i686-mingw32/bin/../lib/gcc/nios2-elf/4.1.2\libgcc.a(lib2-divmod.o)
                0x0000edfc                __divsi3
                0x0000ee5c                __modsi3
                0x0000eebc                __udivsi3
                0x0000eec4                __umodsi3
 .text          0x0000eecc      0x15c D:/cs723-assignment1/software/freertos_test_bsp/\libhal_bsp.a(alt_close.o)
                0x0000eecc                close
 .text          0x0000f028       0x2c D:/cs723-assignment1/software/freertos_test_bsp/\libhal_bsp.a(alt_dev.o)
 .text          0x0000f054        0x0 D:/cs723-assignment1/software/freertos_test_bsp/\libhal_bsp.a(alt_errno.o)
 .text          0x0000f054      0x134 D:/cs723-assignment1/software/freertos_test_bsp/\libhal_bsp.a(alt_fstat.o)
                0x0000f054                fstat
 .text          0x0000f188        0x0 D:/cs723-assignment1/software/freertos_test_bsp/\libhal_bsp.a(alt_irq_handler.o)
 .text          0x0000f188        0x0 D:/cs723-assignment1/software/freertos_test_bsp/\libhal_bsp.a(alt_irq_vars.o)
 .text          0x0000f188      0x120 D:/cs723-assignment1/software/freertos_test_bsp/\libhal_bsp.a(alt_isatty.o)
                0x0000f188                isatty
 .text          0x0000f2a8      0x150 D:/cs723-assignment1/software/freertos_test_bsp/\libhal_bsp.a(alt_lseek.o)
                0x0000f2a8                lseek
 .text          0x0000f3f8       0x6c D:/cs723-assignment1/software/freertos_test_bsp/\libhal_bsp.a(alt_main.o)
                0x0000f3f8                alt_main
 .text          0x0000f464       0x40 D:/cs723-assignment1/software/freertos_test_bsp/\libhal_bsp.a(alt_malloc_lock.o)
                0x0000f464                __malloc_lock
                0x0000f484                __malloc_unlock
 .text          0x0000f4a4      0x180 D:/cs723-assignment1/software/freertos_test_bsp/\libhal_bsp.a(alt_read.o)
                0x0000f4a4                read
 .text          0x0000f624       0x60 D:/cs723-assignment1/software/freertos_test_bsp/\libhal_bsp.a(alt_release_fd.o)
                0x0000f624                alt_release_fd
 .text          0x0000f684       0xbc D:/cs723-assignment1/software/freertos_test_bsp/\libhal_bsp.a(alt_sbrk.o)
                0x0000f684                sbrk
 .text          0x0000f740      0x180 D:/cs723-assignment1/software/freertos_test_bsp/\libhal_bsp.a(alt_write.o)
                0x0000f740                write
 .text          0x0000f8c0      0x3d8 D:/cs723-assignment1/software/freertos_test_bsp/\libhal_bsp.a(alt_sys_init.o)
                0x0000f8c0                alt_irq_init
                0x0000f8f4                alt_sys_init
 .text          0x0000fc98      0x8d8 D:/cs723-assignment1/software/freertos_test_bsp/\libhal_bsp.a(altera_avalon_cfi_flash.o)
                0x0000fc98                alt_flash_cfi_init
                0x0000fd6c                alt_flash_cfi_write
                0x0001002c                alt_flash_cfi_get_info
                0x000100bc                alt_flash_cfi_read
                0x00010124                alt_write_value_to_flash
                0x00010288                alt_flash_program_block
 .text          0x00010570     0x14a8 D:/cs723-assignment1/software/freertos_test_bsp/\libhal_bsp.a(altera_avalon_cfi_flash_table.o)
                0x00010570                alt_read_query_entry_8bit
                0x000105b0                alt_read_query_entry_16bit
                0x000105f4                alt_read_query_entry_32bit
                0x0001063c                alt_write_flash_command_8bit_device_8bit_mode
                0x00010678                alt_write_flash_command_16bit_device_8bit_mode
                0x000106f4                alt_write_flash_command_32bit_device_8bit_mode
                0x0001073c                alt_write_flash_command_16bit_device_16bit_mode
                0x00010780                alt_write_flash_command_32bit_device_16bit_mode
                0x000107c8                alt_write_flash_command_32bit_device_32bit_mode
                0x00010810                alt_write_native_8bit
                0x00010844                alt_write_native_16bit
                0x00010878                alt_write_native_32bit
                0x000108a8                alt_set_flash_width_func
                0x00010a88                alt_set_flash_algorithm_func
                0x00010bb0                alt_read_cfi_table
                0x00011190                alt_read_cfi_width
                0x0001193c                alt_check_primary_table
 .text          0x00011a18      0x148 D:/cs723-assignment1/software/freertos_test_bsp/\libhal_bsp.a(altera_avalon_jtag_uart_fd.o)
                0x00011a18                altera_avalon_jtag_uart_read_fd
                0x00011a70                altera_avalon_jtag_uart_write_fd
                0x00011ac8                altera_avalon_jtag_uart_close_fd
                0x00011b10                altera_avalon_jtag_uart_ioctl_fd
 .text          0x00011b60      0x408 D:/cs723-assignment1/software/freertos_test_bsp/\libhal_bsp.a(altera_avalon_jtag_uart_init.o)
                0x00011b60                altera_avalon_jtag_uart_init
                0x00011ef4                altera_avalon_jtag_uart_close
 .text          0x00011f68       0xf4 D:/cs723-assignment1/software/freertos_test_bsp/\libhal_bsp.a(altera_avalon_jtag_uart_ioctl.o)
                0x00011f68                altera_avalon_jtag_uart_ioctl
 .text          0x0001205c      0x224 D:/cs723-assignment1/software/freertos_test_bsp/\libhal_bsp.a(altera_avalon_jtag_uart_read.o)
                0x0001205c                altera_avalon_jtag_uart_read
 .text          0x00012280      0x240 D:/cs723-assignment1/software/freertos_test_bsp/\libhal_bsp.a(altera_avalon_jtag_uart_write.o)
                0x00012280                altera_avalon_jtag_uart_write
 .text          0x000124c0      0xee0 D:/cs723-assignment1/software/freertos_test_bsp/\libhal_bsp.a(altera_avalon_lcd_16207.o)
                0x00012c94                altera_avalon_lcd_16207_write
                0x00013264                altera_avalon_lcd_16207_init
 .text          0x000133a0       0x58 D:/cs723-assignment1/software/freertos_test_bsp/\libhal_bsp.a(altera_avalon_lcd_16207_fd.o)
                0x000133a0                altera_avalon_lcd_16207_write_fd
 .text          0x000133f8       0xfc D:/cs723-assignment1/software/freertos_test_bsp/\libhal_bsp.a(altera_avalon_timer_sc.o)
                0x0001346c                alt_avalon_timer_sc_init
 .text          0x000134f4       0xf8 D:/cs723-assignment1/software/freertos_test_bsp/\libhal_bsp.a(altera_avalon_uart_fd.o)
                0x000134f4                altera_avalon_uart_read_fd
                0x0001354c                altera_avalon_uart_write_fd
                0x000135a4                altera_avalon_uart_close_fd
 .text          0x000135ec      0x3fc D:/cs723-assignment1/software/freertos_test_bsp/\libhal_bsp.a(altera_avalon_uart_init.o)
                0x000135ec                altera_avalon_uart_init
                0x00013988                altera_avalon_uart_close
 .text          0x000139e8      0x290 D:/cs723-assignment1/software/freertos_test_bsp/\libhal_bsp.a(altera_avalon_uart_read.o)
                0x000139e8                altera_avalon_uart_read
 .text          0x00013c78      0x228 D:/cs723-assignment1/software/freertos_test_bsp/\libhal_bsp.a(altera_avalon_uart_write.o)
                0x00013c78                altera_avalon_uart_write
 .text          0x00013ea0      0x700 D:/cs723-assignment1/software/freertos_test_bsp/\libhal_bsp.a(altera_up_avalon_ps2.o)
                0x00013ea0                read_RI_bit
                0x00013ed4                read_RE_bit
                0x00013f04                read_CE_bit
                0x00013f38                read_num_bytes_available
                0x00013f6c                read_data_valid
                0x00013fa0                read_data_byte
                0x00013fcc                alt_up_ps2_init
                0x00014098                alt_up_ps2_enable_read_interrupt
                0x000140ec                alt_up_ps2_disable_read_interrupt
                0x00014144                alt_up_ps2_write_data_byte
                0x000141bc                alt_up_ps2_wait_for_ack
                0x0001422c                alt_up_ps2_write_data_byte_with_ack
                0x00014298                alt_up_ps2_read_data_byte_timeout
                0x00014348                alt_up_ps2_read_data_byte
                0x000143c4                alt_up_ps2_clear_fifo
                0x0001441c                alt_up_ps2_read_fd
                0x000144b8                alt_up_ps2_write_fd
                0x00014560                alt_up_ps2_open_dev
 .text          0x000145a0      0x304 D:/cs723-assignment1/software/freertos_test_bsp/\libhal_bsp.a(altera_up_avalon_video_character_buffer_with_dma.o)
                0x000145a0                alt_up_char_buffer_init
                0x00014624                alt_up_char_buffer_open_dev
                0x00014664                alt_up_char_buffer_draw
                0x00014734                alt_up_char_buffer_string
                0x00014848                alt_up_char_buffer_clear
 .text          0x000148a4     0x156c D:/cs723-assignment1/software/freertos_test_bsp/\libhal_bsp.a(altera_up_avalon_video_pixel_buffer_dma.o)
                0x000148a4                alt_up_pixel_buffer_dma_open_dev
                0x000148e4                alt_up_pixel_buffer_dma_draw
                0x00014a84                alt_up_pixel_buffer_dma_change_back_buffer_address
                0x00014adc                alt_up_pixel_buffer_dma_swap_buffers
                0x00014b34                alt_up_pixel_buffer_dma_check_swap_buffers_status
                0x00014b68                alt_up_pixel_buffer_dma_clear_screen
                0x00014ccc                alt_up_pixel_buffer_dma_draw_box
                0x000151c0                alt_up_pixel_buffer_dma_draw_hline
                0x00015510                alt_up_pixel_buffer_dma_draw_vline
                0x000158e0                alt_up_pixel_buffer_dma_draw_rectangle
                0x000159a4                helper_plot_pixel
                0x00015a74                alt_up_pixel_buffer_dma_draw_line
 .text          0x00015e10      0x154 D:/cs723-assignment1/software/freertos_test_bsp/\libhal_bsp.a(alt_alarm_start.o)
                0x00015e10                alt_alarm_start
 .text          0x00015f64       0x78 D:/cs723-assignment1/software/freertos_test_bsp/\libhal_bsp.a(alt_dcache_flush.o)
                0x00015f64                alt_dcache_flush
 .text          0x00015fdc      0x114 D:/cs723-assignment1/software/freertos_test_bsp/\libhal_bsp.a(alt_dev_llist_insert.o)
                0x00015fdc                alt_dev_llist_insert
 .text          0x000160f0       0x64 D:/cs723-assignment1/software/freertos_test_bsp/\libhal_bsp.a(alt_do_ctors.o)
                0x000160f0                _do_ctors
 .text          0x00016154       0x64 D:/cs723-assignment1/software/freertos_test_bsp/\libhal_bsp.a(alt_do_dtors.o)
                0x00016154                _do_dtors
 .text          0x000161b8       0x94 D:/cs723-assignment1/software/freertos_test_bsp/\libhal_bsp.a(alt_find_dev.o)
                0x000161b8                alt_find_dev
 .text          0x0001624c       0xd0 D:/cs723-assignment1/software/freertos_test_bsp/\libhal_bsp.a(alt_flash_dev.o)
                0x0001624c                alt_flash_open_dev
                0x000162c8                alt_flash_close_dev
 .text          0x0001631c      0x13c D:/cs723-assignment1/software/freertos_test_bsp/\libhal_bsp.a(alt_io_redirect.o)
                0x000163e0                alt_io_redirect
 .text          0x00016458      0x2c4 D:/cs723-assignment1/software/freertos_test_bsp/\libhal_bsp.a(alt_open.o)
                0x00016534                open
 .text          0x0001671c      0x1a4 D:/cs723-assignment1/software/freertos_test_bsp/\libhal_bsp.a(alt_tick.o)
                0x0001671c                alt_alarm_stop
                0x000167b4                alt_tick
 .text          0x000168c0       0x30 D:/cs723-assignment1/software/freertos_test_bsp/\libhal_bsp.a(alt_usleep.o)
                0x000168c0                usleep
 .text          0x000168f0       0x20 D:/cs723-assignment1/software/freertos_test_bsp/\libhal_bsp.a(altera_nios2_qsys_irq.o)
                0x000168f0                altera_nios2_qsys_irq_init
 .text          0x00016910      0x460 D:/cs723-assignment1/software/freertos_test_bsp/\libhal_bsp.a(altera_avalon_cfi_flash_amd.o)
                0x00016910                alt_program_amd
                0x00016978                alt_erase_block_amd
 .text          0x00016d70      0x460 D:/cs723-assignment1/software/freertos_test_bsp/\libhal_bsp.a(altera_avalon_cfi_flash_intel.o)
                0x00016d70                alt_program_intel
                0x00016df4                alt_erase_block_intel
 .text          0x000171d0      0x12c D:/cs723-assignment1/software/freertos_test_bsp/\libhal_bsp.a(alt_busy_sleep.o)
                0x000171d0                alt_busy_sleep
 .text          0x000172fc      0x120 D:/cs723-assignment1/software/freertos_test_bsp/\libhal_bsp.a(alt_find_file.o)
                0x000172fc                alt_find_file
 .text          0x0001741c       0xb8 D:/cs723-assignment1/software/freertos_test_bsp/\libhal_bsp.a(alt_get_fd.o)
                0x0001741c                alt_get_fd
 .text          0x000174d4       0x14 c:/altera/13.0/nios2eds/bin/gnu/h-i686-mingw32/bin/../lib/gcc/nios2-elf/4.1.2/../../../../nios2-elf/lib\libc.a(lib_a-atexit.o)
                0x000174d4                atexit
 .text          0x000174e8        0x0 c:/altera/13.0/nios2eds/bin/gnu/h-i686-mingw32/bin/../lib/gcc/nios2-elf/4.1.2/../../../../nios2-elf/lib\libc.a(lib_a-ctype_.o)
 .text          0x000174e8       0x38 c:/altera/13.0/nios2eds/bin/gnu/h-i686-mingw32/bin/../lib/gcc/nios2-elf/4.1.2/../../../../nios2-elf/lib\libc.a(lib_a-exit.o)
                0x000174e8                exit
 .text          0x00017520      0x134 c:/altera/13.0/nios2eds/bin/gnu/h-i686-mingw32/bin/../lib/gcc/nios2-elf/4.1.2/../../../../nios2-elf/lib\libc.a(lib_a-__atexit.o)
                0x00017520                __register_exitproc
 .text          0x00017654      0x1b4 c:/altera/13.0/nios2eds/bin/gnu/h-i686-mingw32/bin/../lib/gcc/nios2-elf/4.1.2/../../../../nios2-elf/lib\libc.a(lib_a-__call_atexit.o)
                0x00017658                __call_exitprocs
 .text          0x00017808       0x60 D:/cs723-assignment1/software/freertos_test_bsp/\libhal_bsp.a(alt_exit.o)
                0x00017848                _exit
 *(.gnu.warning.*)
 *(.fini)
                0x00017868                PROVIDE (__etext, ABSOLUTE (.))
                0x00017868                PROVIDE (_etext, ABSOLUTE (.))
                0x00017868                PROVIDE (etext, ABSOLUTE (.))
 *(.eh_frame_hdr)
                0x00017868                . = ALIGN (0x4)
                0x00017868                PROVIDE (__preinit_array_start, ABSOLUTE (.))
 *(.preinit_array)
                0x00017868                PROVIDE (__preinit_array_end, ABSOLUTE (.))
                0x00017868                PROVIDE (__init_array_start, ABSOLUTE (.))
 *(.init_array)
                0x00017868                PROVIDE (__init_array_end, ABSOLUTE (.))
                0x00017868                PROVIDE (__fini_array_start, ABSOLUTE (.))
 *(.fini_array)
                0x00017868                PROVIDE (__fini_array_end, ABSOLUTE (.))
 *(.eh_frame)
 *(.gcc_except_table)
 *(.dynamic)
                0x00017868                PROVIDE (__CTOR_LIST__, ABSOLUTE (.))
 *(.ctors)
 *(SORT(.ctors.*))
 .ctors.65535   0x00017868        0x4 c:/altera/13.0/nios2eds/bin/gnu/h-i686-mingw32/bin/../lib/gcc/nios2-elf/4.1.2/../../../../nios2-elf/lib\libc.a(lib_a-__call_atexit.o)
                0x0001786c                PROVIDE (__CTOR_END__, ABSOLUTE (.))
                0x0001786c                PROVIDE (__DTOR_LIST__, ABSOLUTE (.))
 *(.dtors)
 *(SORT(.dtors.*))
                0x0001786c                PROVIDE (__DTOR_END__, ABSOLUTE (.))
 *(.jcr)
                0x0001786c                . = ALIGN (0x4)

.rodata         0x08000000      0x8f0
                0x08000000                PROVIDE (__ram_rodata_start, ABSOLUTE (.))
                0x08000000                . = ALIGN (0x4)
 *(.rodata .rodata.* .gnu.linkonce.r.*)
 .rodata        0x08000000       0x34 obj/default//D/cs723-assignment1/software/freertos_test/freertos/port.o
 .rodata        0x08000034       0x1c obj/default//D/cs723-assignment1/software/freertos_test/freertos/tasks.o
 .rodata        0x08000050        0x8 obj/default//D/cs723-assignment1/software/freertos_test/freertos/timers.o
 .rodata        0x08000058      0x21c obj/default//D/cs723-assignment1/software/freertos_test/freertos_test.o
 .rodata        0x08000274       0x14 c:/altera/13.0/nios2eds/bin/gnu/h-i686-mingw32/bin/../lib/gcc/nios2-elf/4.1.2\libgcc.a(_thenan_df.o)
                0x08000274                __thenan_df
 .rodata        0x08000288      0x100 c:/altera/13.0/nios2eds/bin/gnu/h-i686-mingw32/bin/../lib/gcc/nios2-elf/4.1.2\libgcc.a(_clz.o)
                0x08000288                __clz_tab
 .rodata.str1.4
                0x08000388        0x2 c:/altera/13.0/nios2eds/bin/gnu/h-i686-mingw32/bin/../lib/gcc/nios2-elf/4.1.2/../../../../nios2-elf/lib\libc.a(lib_a-puts.o)
                                  0x4 (size before relaxing)
 *fill*         0x0800038a        0x2 00
 .rodata.str1.4
                0x0800038c       0x5e c:/altera/13.0/nios2eds/bin/gnu/h-i686-mingw32/bin/../lib/gcc/nios2-elf/4.1.2/../../../../nios2-elf/lib\libc.a(lib_a-vfprintf.o)
                                 0x60 (size before relaxing)
 *fill*         0x080003ea        0x2 00
 .rodata        0x080003ec       0x20 c:/altera/13.0/nios2eds/bin/gnu/h-i686-mingw32/bin/../lib/gcc/nios2-elf/4.1.2/../../../../nios2-elf/lib\libc.a(lib_a-vfprintf.o)
 .rodata.str1.4
                0x0800040c       0x10 c:/altera/13.0/nios2eds/bin/gnu/h-i686-mingw32/bin/../lib/gcc/nios2-elf/4.1.2/../../../../nios2-elf/lib\libc.a(lib_a-dtoa.o)
                                 0x14 (size before relaxing)
 .rodata.str1.4
                0x0800041c        0x2 c:/altera/13.0/nios2eds/bin/gnu/h-i686-mingw32/bin/../lib/gcc/nios2-elf/4.1.2/../../../../nios2-elf/lib\libc.a(lib_a-impure.o)
                                  0x4 (size before relaxing)
 *fill*         0x0800041e        0x2 00
 .rodata.str1.4
                0x08000420       0x10 c:/altera/13.0/nios2eds/bin/gnu/h-i686-mingw32/bin/../lib/gcc/nios2-elf/4.1.2/../../../../nios2-elf/lib\libc.a(lib_a-locale.o)
                                 0x18 (size before relaxing)
 .rodata        0x08000430       0x30 c:/altera/13.0/nios2eds/bin/gnu/h-i686-mingw32/bin/../lib/gcc/nios2-elf/4.1.2/../../../../nios2-elf/lib\libc.a(lib_a-locale.o)
 .rodata        0x08000460      0x124 c:/altera/13.0/nios2eds/bin/gnu/h-i686-mingw32/bin/../lib/gcc/nios2-elf/4.1.2/../../../../nios2-elf/lib\libc.a(lib_a-mprec.o)
                0x08000460                __mprec_tens
                0x08000528                __mprec_bigtens
                0x08000550                __mprec_tinytens
 .rodata        0x08000584        0xc D:/cs723-assignment1/software/freertos_test_bsp/\libhal_bsp.a(alt_dev.o)
 .rodata        0x08000590       0x10 D:/cs723-assignment1/software/freertos_test_bsp/\libhal_bsp.a(alt_main.o)
 .rodata        0x080005a0       0xb0 D:/cs723-assignment1/software/freertos_test_bsp/\libhal_bsp.a(alt_sys_init.o)
 .rodata        0x08000650       0x1c D:/cs723-assignment1/software/freertos_test_bsp/\libhal_bsp.a(altera_up_avalon_video_character_buffer_with_dma.o)
 .rodata        0x0800066c      0x284 c:/altera/13.0/nios2eds/bin/gnu/h-i686-mingw32/bin/../lib/gcc/nios2-elf/4.1.2/../../../../nios2-elf/lib\libc.a(lib_a-ctype_.o)
                0x0800066c                _ctype_
 *(.rodata1)
                0x080008f0                . = ALIGN (0x4)
                0x080008f0                PROVIDE (__ram_rodata_end, ABSOLUTE (.))
                0x08000000                PROVIDE (__flash_rodata_start, LOADADDR (.rodata))

.rwdata         0x080008f0     0x1e14
                0x080008f0                PROVIDE (__ram_rwdata_start, ABSOLUTE (.))
                0x080008f0                . = ALIGN (0x4)
 *(.got.plt)
 *(.got)
 *(.data1)
 *(.data .data.* .gnu.linkonce.d.*)
 .data          0x080008f0        0x0 D:/cs723-assignment1/software/freertos_test_bsp//obj/HAL/src/crt0.o
 .data          0x080008f0        0x0 obj/default//D/cs723-assignment1/software/freertos_test/freertos/croutine.o
 .data          0x080008f0        0x0 obj/default//D/cs723-assignment1/software/freertos_test/freertos/event_groups.o
 .data          0x080008f0        0x0 obj/default//D/cs723-assignment1/software/freertos_test/freertos/heap.o
 .data          0x080008f0        0x0 obj/default//D/cs723-assignment1/software/freertos_test/freertos/list.o
 .data          0x080008f0        0x0 obj/default//D/cs723-assignment1/software/freertos_test/freertos/port.o
 .data          0x080008f0        0x0 obj/default//D/cs723-assignment1/software/freertos_test/freertos/queue.o
 .data          0x080008f0        0x0 obj/default//D/cs723-assignment1/software/freertos_test/freertos/tasks.o
 .data          0x080008f0        0x0 obj/default//D/cs723-assignment1/software/freertos_test/freertos/timers.o
 .data          0x080008f0        0x0 obj/default//D/cs723-assignment1/software/freertos_test/freertos_test.o
 .data          0x080008f0        0x0 obj/default//D/cs723-assignment1/software/freertos_test/freertos/port_asm.o
 .data          0x080008f0        0x0 c:/altera/13.0/nios2eds/bin/gnu/h-i686-mingw32/bin/../lib/gcc/nios2-elf/4.1.2\libgcc.a(_addsub_df.o)
 .data          0x080008f0        0x0 c:/altera/13.0/nios2eds/bin/gnu/h-i686-mingw32/bin/../lib/gcc/nios2-elf/4.1.2\libgcc.a(_mul_df.o)
 .data          0x080008f0        0x0 c:/altera/13.0/nios2eds/bin/gnu/h-i686-mingw32/bin/../lib/gcc/nios2-elf/4.1.2\libgcc.a(_div_df.o)
 .data          0x080008f0        0x0 c:/altera/13.0/nios2eds/bin/gnu/h-i686-mingw32/bin/../lib/gcc/nios2-elf/4.1.2\libgcc.a(_eq_df.o)
 .data          0x080008f0        0x0 c:/altera/13.0/nios2eds/bin/gnu/h-i686-mingw32/bin/../lib/gcc/nios2-elf/4.1.2\libgcc.a(_si_to_df.o)
 .data          0x080008f0        0x0 c:/altera/13.0/nios2eds/bin/gnu/h-i686-mingw32/bin/../lib/gcc/nios2-elf/4.1.2\libgcc.a(_thenan_df.o)
 .data          0x080008f0        0x0 c:/altera/13.0/nios2eds/bin/gnu/h-i686-mingw32/bin/../lib/gcc/nios2-elf/4.1.2\libgcc.a(_usi_to_df.o)
 .data          0x080008f0        0x0 c:/altera/13.0/nios2eds/bin/gnu/h-i686-mingw32/bin/../lib/gcc/nios2-elf/4.1.2\libgcc.a(_muldi3.o)
 .data          0x080008f0        0x0 c:/altera/13.0/nios2eds/bin/gnu/h-i686-mingw32/bin/../lib/gcc/nios2-elf/4.1.2\libgcc.a(_clzsi2.o)
 .data          0x080008f0        0x0 c:/altera/13.0/nios2eds/bin/gnu/h-i686-mingw32/bin/../lib/gcc/nios2-elf/4.1.2\libgcc.a(_pack_df.o)
 .data          0x080008f0        0x0 c:/altera/13.0/nios2eds/bin/gnu/h-i686-mingw32/bin/../lib/gcc/nios2-elf/4.1.2\libgcc.a(_unpack_df.o)
 .data          0x080008f0        0x0 c:/altera/13.0/nios2eds/bin/gnu/h-i686-mingw32/bin/../lib/gcc/nios2-elf/4.1.2\libgcc.a(_fpcmp_parts_df.o)
 .data          0x080008f0        0x0 c:/altera/13.0/nios2eds/bin/gnu/h-i686-mingw32/bin/../lib/gcc/nios2-elf/4.1.2\libgcc.a(_clz.o)
 .data          0x080008f0        0x0 c:/altera/13.0/nios2eds/bin/gnu/h-i686-mingw32/bin/../lib/gcc/nios2-elf/4.1.2/../../../../nios2-elf/lib\libc.a(lib_a-memcmp.o)
 .data          0x080008f0        0x0 c:/altera/13.0/nios2eds/bin/gnu/h-i686-mingw32/bin/../lib/gcc/nios2-elf/4.1.2/../../../../nios2-elf/lib\libc.a(lib_a-memcpy.o)
 .data          0x080008f0        0x0 c:/altera/13.0/nios2eds/bin/gnu/h-i686-mingw32/bin/../lib/gcc/nios2-elf/4.1.2/../../../../nios2-elf/lib\libc.a(lib_a-memset.o)
 .data          0x080008f0        0x0 c:/altera/13.0/nios2eds/bin/gnu/h-i686-mingw32/bin/../lib/gcc/nios2-elf/4.1.2/../../../../nios2-elf/lib\libc.a(lib_a-printf.o)
 .data          0x080008f0        0x0 c:/altera/13.0/nios2eds/bin/gnu/h-i686-mingw32/bin/../lib/gcc/nios2-elf/4.1.2/../../../../nios2-elf/lib\libc.a(lib_a-puts.o)
 .data          0x080008f0        0x0 c:/altera/13.0/nios2eds/bin/gnu/h-i686-mingw32/bin/../lib/gcc/nios2-elf/4.1.2/../../../../nios2-elf/lib\libc.a(lib_a-strlen.o)
 .data          0x080008f0        0x0 c:/altera/13.0/nios2eds/bin/gnu/h-i686-mingw32/bin/../lib/gcc/nios2-elf/4.1.2/../../../../nios2-elf/lib\libc.a(lib_a-vfprintf.o)
 .data          0x080008f0        0x0 c:/altera/13.0/nios2eds/bin/gnu/h-i686-mingw32/bin/../lib/gcc/nios2-elf/4.1.2/../../../../nios2-elf/lib\libc.a(lib_a-wsetup.o)
 .data          0x080008f0        0x0 c:/altera/13.0/nios2eds/bin/gnu/h-i686-mingw32/bin/../lib/gcc/nios2-elf/4.1.2/../../../../nios2-elf/lib\libc.a(lib_a-dtoa.o)
 .data          0x080008f0        0x0 c:/altera/13.0/nios2eds/bin/gnu/h-i686-mingw32/bin/../lib/gcc/nios2-elf/4.1.2/../../../../nios2-elf/lib\libc.a(lib_a-fflush.o)
 .data          0x080008f0        0x0 c:/altera/13.0/nios2eds/bin/gnu/h-i686-mingw32/bin/../lib/gcc/nios2-elf/4.1.2/../../../../nios2-elf/lib\libc.a(lib_a-findfp.o)
 .data          0x080008f0        0x0 c:/altera/13.0/nios2eds/bin/gnu/h-i686-mingw32/bin/../lib/gcc/nios2-elf/4.1.2/../../../../nios2-elf/lib\libc.a(lib_a-freer.o)
 .data          0x080008f0        0x0 c:/altera/13.0/nios2eds/bin/gnu/h-i686-mingw32/bin/../lib/gcc/nios2-elf/4.1.2/../../../../nios2-elf/lib\libc.a(lib_a-fvwrite.o)
 .data          0x080008f0        0x0 c:/altera/13.0/nios2eds/bin/gnu/h-i686-mingw32/bin/../lib/gcc/nios2-elf/4.1.2/../../../../nios2-elf/lib\libc.a(lib_a-fwalk.o)
 .data          0x080008f0      0x400 c:/altera/13.0/nios2eds/bin/gnu/h-i686-mingw32/bin/../lib/gcc/nios2-elf/4.1.2/../../../../nios2-elf/lib\libc.a(lib_a-impure.o)
 .data          0x08000cf0        0xc c:/altera/13.0/nios2eds/bin/gnu/h-i686-mingw32/bin/../lib/gcc/nios2-elf/4.1.2/../../../../nios2-elf/lib\libc.a(lib_a-locale.o)
                0x08000cf0                __lc_ctype
 .data          0x08000cfc        0x0 c:/altera/13.0/nios2eds/bin/gnu/h-i686-mingw32/bin/../lib/gcc/nios2-elf/4.1.2/../../../../nios2-elf/lib\libc.a(lib_a-makebuf.o)
 .data          0x08000cfc      0x408 c:/altera/13.0/nios2eds/bin/gnu/h-i686-mingw32/bin/../lib/gcc/nios2-elf/4.1.2/../../../../nios2-elf/lib\libc.a(lib_a-mallocr.o)
                0x08000cfc                __malloc_av_
 .data          0x08001104        0x0 c:/altera/13.0/nios2eds/bin/gnu/h-i686-mingw32/bin/../lib/gcc/nios2-elf/4.1.2/../../../../nios2-elf/lib\libc.a(lib_a-memchr.o)
 .data          0x08001104        0x0 c:/altera/13.0/nios2eds/bin/gnu/h-i686-mingw32/bin/../lib/gcc/nios2-elf/4.1.2/../../../../nios2-elf/lib\libc.a(lib_a-memmove.o)
 .data          0x08001104        0x0 c:/altera/13.0/nios2eds/bin/gnu/h-i686-mingw32/bin/../lib/gcc/nios2-elf/4.1.2/../../../../nios2-elf/lib\libc.a(lib_a-mprec.o)
 .data          0x08001104        0x0 c:/altera/13.0/nios2eds/bin/gnu/h-i686-mingw32/bin/../lib/gcc/nios2-elf/4.1.2/../../../../nios2-elf/lib\libc.a(lib_a-reallocr.o)
 .data          0x08001104        0x0 c:/altera/13.0/nios2eds/bin/gnu/h-i686-mingw32/bin/../lib/gcc/nios2-elf/4.1.2/../../../../nios2-elf/lib\libc.a(lib_a-s_isinfd.o)
 .data          0x08001104        0x0 c:/altera/13.0/nios2eds/bin/gnu/h-i686-mingw32/bin/../lib/gcc/nios2-elf/4.1.2/../../../../nios2-elf/lib\libc.a(lib_a-s_isnand.o)
 .data          0x08001104        0x0 c:/altera/13.0/nios2eds/bin/gnu/h-i686-mingw32/bin/../lib/gcc/nios2-elf/4.1.2/../../../../nios2-elf/lib\libc.a(lib_a-sbrkr.o)
 .data          0x08001104        0x0 c:/altera/13.0/nios2eds/bin/gnu/h-i686-mingw32/bin/../lib/gcc/nios2-elf/4.1.2/../../../../nios2-elf/lib\libc.a(lib_a-stdio.o)
 .data          0x08001104        0x0 c:/altera/13.0/nios2eds/bin/gnu/h-i686-mingw32/bin/../lib/gcc/nios2-elf/4.1.2/../../../../nios2-elf/lib\libc.a(lib_a-strcmp.o)
 .data          0x08001104        0x0 c:/altera/13.0/nios2eds/bin/gnu/h-i686-mingw32/bin/../lib/gcc/nios2-elf/4.1.2/../../../../nios2-elf/lib\libc.a(lib_a-writer.o)
 .data          0x08001104        0x0 c:/altera/13.0/nios2eds/bin/gnu/h-i686-mingw32/bin/../lib/gcc/nios2-elf/4.1.2/../../../../nios2-elf/lib\libc.a(lib_a-callocr.o)
 .data          0x08001104        0x0 c:/altera/13.0/nios2eds/bin/gnu/h-i686-mingw32/bin/../lib/gcc/nios2-elf/4.1.2/../../../../nios2-elf/lib\libc.a(lib_a-closer.o)
 .data          0x08001104        0x0 c:/altera/13.0/nios2eds/bin/gnu/h-i686-mingw32/bin/../lib/gcc/nios2-elf/4.1.2/../../../../nios2-elf/lib\libc.a(lib_a-fclose.o)
 .data          0x08001104        0x0 c:/altera/13.0/nios2eds/bin/gnu/h-i686-mingw32/bin/../lib/gcc/nios2-elf/4.1.2/../../../../nios2-elf/lib\libc.a(lib_a-fstatr.o)
 .data          0x08001104        0x0 c:/altera/13.0/nios2eds/bin/gnu/h-i686-mingw32/bin/../lib/gcc/nios2-elf/4.1.2/../../../../nios2-elf/lib\libc.a(lib_a-int_errno.o)
 .data          0x08001104        0x0 c:/altera/13.0/nios2eds/bin/gnu/h-i686-mingw32/bin/../lib/gcc/nios2-elf/4.1.2/../../../../nios2-elf/lib\libc.a(lib_a-isattyr.o)
 .data          0x08001104        0x0 c:/altera/13.0/nios2eds/bin/gnu/h-i686-mingw32/bin/../lib/gcc/nios2-elf/4.1.2/../../../../nios2-elf/lib\libc.a(lib_a-lseekr.o)
 .data          0x08001104        0x0 c:/altera/13.0/nios2eds/bin/gnu/h-i686-mingw32/bin/../lib/gcc/nios2-elf/4.1.2/../../../../nios2-elf/lib\libc.a(lib_a-readr.o)
 .data          0x08001104        0x0 c:/altera/13.0/nios2eds/bin/gnu/h-i686-mingw32/bin/../lib/gcc/nios2-elf/4.1.2\libgcc.a(_udivdi3.o)
 .data          0x08001104        0x0 c:/altera/13.0/nios2eds/bin/gnu/h-i686-mingw32/bin/../lib/gcc/nios2-elf/4.1.2\libgcc.a(_umoddi3.o)
 .data          0x08001104        0x0 c:/altera/13.0/nios2eds/bin/gnu/h-i686-mingw32/bin/../lib/gcc/nios2-elf/4.1.2\libgcc.a(_ne_df.o)
 .data          0x08001104        0x0 c:/altera/13.0/nios2eds/bin/gnu/h-i686-mingw32/bin/../lib/gcc/nios2-elf/4.1.2\libgcc.a(_gt_df.o)
 .data          0x08001104        0x0 c:/altera/13.0/nios2eds/bin/gnu/h-i686-mingw32/bin/../lib/gcc/nios2-elf/4.1.2\libgcc.a(_ge_df.o)
 .data          0x08001104        0x0 c:/altera/13.0/nios2eds/bin/gnu/h-i686-mingw32/bin/../lib/gcc/nios2-elf/4.1.2\libgcc.a(_lt_df.o)
 .data          0x08001104        0x0 c:/altera/13.0/nios2eds/bin/gnu/h-i686-mingw32/bin/../lib/gcc/nios2-elf/4.1.2\libgcc.a(_df_to_si.o)
 .data          0x08001104        0x0 c:/altera/13.0/nios2eds/bin/gnu/h-i686-mingw32/bin/../lib/gcc/nios2-elf/4.1.2\libgcc.a(lib2-divmod.o)
 .data          0x08001104        0x0 D:/cs723-assignment1/software/freertos_test_bsp/\libhal_bsp.a(alt_close.o)
 .data          0x08001104      0x1a8 D:/cs723-assignment1/software/freertos_test_bsp/\libhal_bsp.a(alt_dev.o)
                0x08001104                alt_dev_null
                0x0800112c                alt_fd_list
 .data          0x080012ac        0x0 D:/cs723-assignment1/software/freertos_test_bsp/\libhal_bsp.a(alt_errno.o)
 .data          0x080012ac        0x0 D:/cs723-assignment1/software/freertos_test_bsp/\libhal_bsp.a(alt_fstat.o)
 .data          0x080012ac        0x0 D:/cs723-assignment1/software/freertos_test_bsp/\libhal_bsp.a(alt_irq_handler.o)
 .data          0x080012ac        0x0 D:/cs723-assignment1/software/freertos_test_bsp/\libhal_bsp.a(alt_irq_vars.o)
 .data          0x080012ac        0x0 D:/cs723-assignment1/software/freertos_test_bsp/\libhal_bsp.a(alt_isatty.o)
 .data          0x080012ac        0x0 D:/cs723-assignment1/software/freertos_test_bsp/\libhal_bsp.a(alt_lseek.o)
 .data          0x080012ac        0x0 D:/cs723-assignment1/software/freertos_test_bsp/\libhal_bsp.a(alt_main.o)
 .data          0x080012ac        0x0 D:/cs723-assignment1/software/freertos_test_bsp/\libhal_bsp.a(alt_malloc_lock.o)
 .data          0x080012ac        0x0 D:/cs723-assignment1/software/freertos_test_bsp/\libhal_bsp.a(alt_read.o)
 .data          0x080012ac        0x0 D:/cs723-assignment1/software/freertos_test_bsp/\libhal_bsp.a(alt_release_fd.o)
 .data          0x080012ac        0x0 D:/cs723-assignment1/software/freertos_test_bsp/\libhal_bsp.a(alt_sbrk.o)
 .data          0x080012ac        0x0 D:/cs723-assignment1/software/freertos_test_bsp/\libhal_bsp.a(alt_write.o)
 .data          0x080012ac     0x13f0 D:/cs723-assignment1/software/freertos_test_bsp/\libhal_bsp.a(alt_sys_init.o)
 .data          0x0800269c        0x0 D:/cs723-assignment1/software/freertos_test_bsp/\libhal_bsp.a(altera_avalon_cfi_flash.o)
 .data          0x0800269c        0x0 D:/cs723-assignment1/software/freertos_test_bsp/\libhal_bsp.a(altera_avalon_cfi_flash_table.o)
 .data          0x0800269c        0x0 D:/cs723-assignment1/software/freertos_test_bsp/\libhal_bsp.a(altera_avalon_jtag_uart_fd.o)
 .data          0x0800269c        0x0 D:/cs723-assignment1/software/freertos_test_bsp/\libhal_bsp.a(altera_avalon_jtag_uart_init.o)
 .data          0x0800269c        0x0 D:/cs723-assignment1/software/freertos_test_bsp/\libhal_bsp.a(altera_avalon_jtag_uart_ioctl.o)
 .data          0x0800269c        0x0 D:/cs723-assignment1/software/freertos_test_bsp/\libhal_bsp.a(altera_avalon_jtag_uart_read.o)
 .data          0x0800269c        0x0 D:/cs723-assignment1/software/freertos_test_bsp/\libhal_bsp.a(altera_avalon_jtag_uart_write.o)
 .data          0x0800269c        0x0 D:/cs723-assignment1/software/freertos_test_bsp/\libhal_bsp.a(altera_avalon_lcd_16207.o)
 .data          0x0800269c        0x0 D:/cs723-assignment1/software/freertos_test_bsp/\libhal_bsp.a(altera_avalon_lcd_16207_fd.o)
 .data          0x0800269c        0x0 D:/cs723-assignment1/software/freertos_test_bsp/\libhal_bsp.a(altera_avalon_timer_sc.o)
 .data          0x0800269c        0x0 D:/cs723-assignment1/software/freertos_test_bsp/\libhal_bsp.a(altera_avalon_uart_fd.o)
 .data          0x0800269c        0x0 D:/cs723-assignment1/software/freertos_test_bsp/\libhal_bsp.a(altera_avalon_uart_init.o)
 .data          0x0800269c        0x0 D:/cs723-assignment1/software/freertos_test_bsp/\libhal_bsp.a(altera_avalon_uart_read.o)
 .data          0x0800269c        0x0 D:/cs723-assignment1/software/freertos_test_bsp/\libhal_bsp.a(altera_avalon_uart_write.o)
 .data          0x0800269c        0x0 D:/cs723-assignment1/software/freertos_test_bsp/\libhal_bsp.a(altera_up_avalon_ps2.o)
 .data          0x0800269c        0x0 D:/cs723-assignment1/software/freertos_test_bsp/\libhal_bsp.a(altera_up_avalon_video_character_buffer_with_dma.o)
 .data          0x0800269c        0x0 D:/cs723-assignment1/software/freertos_test_bsp/\libhal_bsp.a(altera_up_avalon_video_pixel_buffer_dma.o)
 .data          0x0800269c        0x0 D:/cs723-assignment1/software/freertos_test_bsp/\libhal_bsp.a(alt_alarm_start.o)
 .data          0x0800269c        0x0 D:/cs723-assignment1/software/freertos_test_bsp/\libhal_bsp.a(alt_dcache_flush.o)
 .data          0x0800269c        0x0 D:/cs723-assignment1/software/freertos_test_bsp/\libhal_bsp.a(alt_dev_llist_insert.o)
 .data          0x0800269c        0x0 D:/cs723-assignment1/software/freertos_test_bsp/\libhal_bsp.a(alt_do_ctors.o)
 .data          0x0800269c        0x0 D:/cs723-assignment1/software/freertos_test_bsp/\libhal_bsp.a(alt_do_dtors.o)
 .data          0x0800269c        0x0 D:/cs723-assignment1/software/freertos_test_bsp/\libhal_bsp.a(alt_find_dev.o)
 .data          0x0800269c        0x0 D:/cs723-assignment1/software/freertos_test_bsp/\libhal_bsp.a(alt_flash_dev.o)
 .data          0x0800269c        0x0 D:/cs723-assignment1/software/freertos_test_bsp/\libhal_bsp.a(alt_io_redirect.o)
 .data          0x0800269c        0x0 D:/cs723-assignment1/software/freertos_test_bsp/\libhal_bsp.a(alt_open.o)
 .data          0x0800269c        0x0 D:/cs723-assignment1/software/freertos_test_bsp/\libhal_bsp.a(alt_tick.o)
 .data          0x0800269c        0x0 D:/cs723-assignment1/software/freertos_test_bsp/\libhal_bsp.a(alt_usleep.o)
 .data          0x0800269c        0x0 D:/cs723-assignment1/software/freertos_test_bsp/\libhal_bsp.a(altera_nios2_qsys_irq.o)
 .data          0x0800269c        0x0 D:/cs723-assignment1/software/freertos_test_bsp/\libhal_bsp.a(altera_avalon_cfi_flash_amd.o)
 .data          0x0800269c        0x0 D:/cs723-assignment1/software/freertos_test_bsp/\libhal_bsp.a(altera_avalon_cfi_flash_intel.o)
 .data          0x0800269c        0x0 D:/cs723-assignment1/software/freertos_test_bsp/\libhal_bsp.a(alt_busy_sleep.o)
 .data          0x0800269c        0x0 D:/cs723-assignment1/software/freertos_test_bsp/\libhal_bsp.a(alt_find_file.o)
 .data          0x0800269c        0x0 D:/cs723-assignment1/software/freertos_test_bsp/\libhal_bsp.a(alt_get_fd.o)
 .data          0x0800269c        0x0 c:/altera/13.0/nios2eds/bin/gnu/h-i686-mingw32/bin/../lib/gcc/nios2-elf/4.1.2/../../../../nios2-elf/lib\libc.a(lib_a-atexit.o)
 .data          0x0800269c        0x0 c:/altera/13.0/nios2eds/bin/gnu/h-i686-mingw32/bin/../lib/gcc/nios2-elf/4.1.2/../../../../nios2-elf/lib\libc.a(lib_a-ctype_.o)
 .data          0x0800269c        0x0 c:/altera/13.0/nios2eds/bin/gnu/h-i686-mingw32/bin/../lib/gcc/nios2-elf/4.1.2/../../../../nios2-elf/lib\libc.a(lib_a-exit.o)
 .data          0x0800269c        0x0 c:/altera/13.0/nios2eds/bin/gnu/h-i686-mingw32/bin/../lib/gcc/nios2-elf/4.1.2/../../../../nios2-elf/lib\libc.a(lib_a-__atexit.o)
 .data          0x0800269c        0x0 c:/altera/13.0/nios2eds/bin/gnu/h-i686-mingw32/bin/../lib/gcc/nios2-elf/4.1.2/../../../../nios2-elf/lib\libc.a(lib_a-__call_atexit.o)
 .data          0x0800269c        0x0 D:/cs723-assignment1/software/freertos_test_bsp/\libhal_bsp.a(alt_exit.o)
                0x0800a69c                _gp = ABSOLUTE ((. + 0x8000))
                0x0800a69c                PROVIDE (gp, _gp)
 *(.rwdata .rwdata.*)
 *(.sdata .sdata.* .gnu.linkonce.s.*)
 .sdata         0x0800269c        0xc obj/default//D/cs723-assignment1/software/freertos_test/freertos/heap.o
 .sdata         0x080026a8        0x4 obj/default//D/cs723-assignment1/software/freertos_test/freertos/tasks.o
 .sdata         0x080026ac        0x8 obj/default//D/cs723-assignment1/software/freertos_test/freertos_test.o
 .sdata         0x080026b4        0x8 c:/altera/13.0/nios2eds/bin/gnu/h-i686-mingw32/bin/../lib/gcc/nios2-elf/4.1.2/../../../../nios2-elf/lib\libc.a(lib_a-impure.o)
                0x080026b4                _impure_ptr
                0x080026b8                _global_impure_ptr
 .sdata         0x080026bc        0x8 c:/altera/13.0/nios2eds/bin/gnu/h-i686-mingw32/bin/../lib/gcc/nios2-elf/4.1.2/../../../../nios2-elf/lib\libc.a(lib_a-locale.o)
                0x080026bc                __mb_cur_max
 .sdata         0x080026c4        0x8 c:/altera/13.0/nios2eds/bin/gnu/h-i686-mingw32/bin/../lib/gcc/nios2-elf/4.1.2/../../../../nios2-elf/lib\libc.a(lib_a-mallocr.o)
                0x080026c4                __malloc_trim_threshold
                0x080026c8                __malloc_sbrk_base
 .sdata         0x080026cc       0x14 D:/cs723-assignment1/software/freertos_test_bsp/\libhal_bsp.a(alt_dev.o)
                0x080026cc                alt_fs_list
                0x080026d4                alt_dev_list
                0x080026dc                alt_max_fd
 .sdata         0x080026e0        0x4 D:/cs723-assignment1/software/freertos_test_bsp/\libhal_bsp.a(alt_errno.o)
                0x080026e0                alt_errno
 .sdata         0x080026e4        0x4 D:/cs723-assignment1/software/freertos_test_bsp/\libhal_bsp.a(alt_irq_vars.o)
                0x080026e4                alt_priority_mask
 .sdata         0x080026e8        0x4 D:/cs723-assignment1/software/freertos_test_bsp/\libhal_bsp.a(alt_sbrk.o)
 .sdata         0x080026ec        0x4 D:/cs723-assignment1/software/freertos_test_bsp/\libhal_bsp.a(altera_avalon_lcd_16207.o)
 .sdata         0x080026f0        0x8 D:/cs723-assignment1/software/freertos_test_bsp/\libhal_bsp.a(alt_flash_dev.o)
                0x080026f0                alt_flash_dev_list
 .sdata         0x080026f8        0x8 D:/cs723-assignment1/software/freertos_test_bsp/\libhal_bsp.a(alt_tick.o)
                0x080026f8                alt_alarm_list
 .sdata         0x08002700        0x4 c:/altera/13.0/nios2eds/bin/gnu/h-i686-mingw32/bin/../lib/gcc/nios2-elf/4.1.2/../../../../nios2-elf/lib\libc.a(lib_a-ctype_.o)
                0x08002700                __ctype_ptr
 *(.sdata2 .sdata2.* .gnu.linkonce.s2.*)
                0x08002704                . = ALIGN (0x4)
                0x08002704                _edata = ABSOLUTE (.)
                0x08002704                PROVIDE (edata, ABSOLUTE (.))
                0x08002704                PROVIDE (__ram_rwdata_end, ABSOLUTE (.))
                0x080008f0                PROVIDE (__flash_rwdata_start, LOADADDR (.rwdata))

.bss            0x08002704    0x7d530
                0x08002704                __bss_start = ABSOLUTE (.)
                0x08002704                PROVIDE (__sbss_start, ABSOLUTE (.))
                0x08002704                PROVIDE (___sbss_start, ABSOLUTE (.))
 *(.dynsbss)
 *(.sbss .sbss.* .gnu.linkonce.sb.*)
 .sbss          0x08002704       0x1c obj/default//D/cs723-assignment1/software/freertos_test/freertos/croutine.o
                0x08002704                pxCurrentCoRoutine
 .sbss          0x08002720        0xc obj/default//D/cs723-assignment1/software/freertos_test/freertos/heap.o
 .sbss          0x0800272c       0x34 obj/default//D/cs723-assignment1/software/freertos_test/freertos/tasks.o
                0x0800272c                pxCurrentTCB
 .sbss          0x08002760       0x10 obj/default//D/cs723-assignment1/software/freertos_test/freertos/timers.o
 .sbss          0x08002770        0x4 obj/default//D/cs723-assignment1/software/freertos_test/freertos_test.o
 .sbss          0x08002774        0x8 obj/default//D/cs723-assignment1/software/freertos_test/freertos_test.o
                0x08002774                freq_buffer_sem
                0x08002778                HW_dataQ
 .sbss          0x0800277c        0xc c:/altera/13.0/nios2eds/bin/gnu/h-i686-mingw32/bin/../lib/gcc/nios2-elf/4.1.2/../../../../nios2-elf/lib\libc.a(lib_a-locale.o)
                0x0800277c                __nlocale_changed
                0x08002780                __mlocale_changed
                0x08002784                _PathLocale
 .sbss          0x08002788        0xc c:/altera/13.0/nios2eds/bin/gnu/h-i686-mingw32/bin/../lib/gcc/nios2-elf/4.1.2/../../../../nios2-elf/lib\libc.a(lib_a-mallocr.o)
                0x08002788                __malloc_top_pad
                0x0800278c                __malloc_max_sbrked_mem
                0x08002790                __malloc_max_total_mem
 .sbss          0x08002794        0x4 c:/altera/13.0/nios2eds/bin/gnu/h-i686-mingw32/bin/../lib/gcc/nios2-elf/4.1.2/../../../../nios2-elf/lib\libc.a(lib_a-int_errno.o)
                0x08002794                errno
 .sbss          0x08002798        0x4 D:/cs723-assignment1/software/freertos_test_bsp/\libhal_bsp.a(alt_irq_vars.o)
                0x08002798                alt_irq_active
 .sbss          0x0800279c        0xc D:/cs723-assignment1/software/freertos_test_bsp/\libhal_bsp.a(alt_main.o)
                0x0800279c                alt_argc
                0x080027a0                alt_argv
                0x080027a4                alt_envp
 .sbss          0x080027a8        0x8 D:/cs723-assignment1/software/freertos_test_bsp/\libhal_bsp.a(alt_tick.o)
                0x080027a8                _alt_tick_rate
                0x080027ac                _alt_nticks
 *(.sbss2 .sbss2.* .gnu.linkonce.sb2.*)
 *(.scommon)
                0x080027b0                PROVIDE (__sbss_end, ABSOLUTE (.))
                0x080027b0                PROVIDE (___sbss_end, ABSOLUTE (.))
 *(.dynbss)
 *(.bss .bss.* .gnu.linkonce.b.*)
 .bss           0x080027b0        0x0 D:/cs723-assignment1/software/freertos_test_bsp//obj/HAL/src/crt0.o
 .bss           0x080027b0       0x64 obj/default//D/cs723-assignment1/software/freertos_test/freertos/croutine.o
 .bss           0x08002814        0x0 obj/default//D/cs723-assignment1/software/freertos_test/freertos/event_groups.o
 .bss           0x08002814    0x7d000 obj/default//D/cs723-assignment1/software/freertos_test/freertos/heap.o
 .bss           0x0807f814        0x0 obj/default//D/cs723-assignment1/software/freertos_test/freertos/list.o
 .bss           0x0807f814        0x0 obj/default//D/cs723-assignment1/software/freertos_test/freertos/port.o
 .bss           0x0807f814        0x0 obj/default//D/cs723-assignment1/software/freertos_test/freertos/queue.o
 .bss           0x0807f814      0x140 obj/default//D/cs723-assignment1/software/freertos_test/freertos/tasks.o
 .bss           0x0807f954       0x28 obj/default//D/cs723-assignment1/software/freertos_test/freertos/timers.o
 .bss           0x0807f97c        0x0 obj/default//D/cs723-assignment1/software/freertos_test/freertos_test.o
 .bss           0x0807f97c        0x0 obj/default//D/cs723-assignment1/software/freertos_test/freertos/port_asm.o
 .bss           0x0807f97c        0x0 c:/altera/13.0/nios2eds/bin/gnu/h-i686-mingw32/bin/../lib/gcc/nios2-elf/4.1.2\libgcc.a(_addsub_df.o)
 .bss           0x0807f97c        0x0 c:/altera/13.0/nios2eds/bin/gnu/h-i686-mingw32/bin/../lib/gcc/nios2-elf/4.1.2\libgcc.a(_mul_df.o)
 .bss           0x0807f97c        0x0 c:/altera/13.0/nios2eds/bin/gnu/h-i686-mingw32/bin/../lib/gcc/nios2-elf/4.1.2\libgcc.a(_div_df.o)
 .bss           0x0807f97c        0x0 c:/altera/13.0/nios2eds/bin/gnu/h-i686-mingw32/bin/../lib/gcc/nios2-elf/4.1.2\libgcc.a(_eq_df.o)
 .bss           0x0807f97c        0x0 c:/altera/13.0/nios2eds/bin/gnu/h-i686-mingw32/bin/../lib/gcc/nios2-elf/4.1.2\libgcc.a(_si_to_df.o)
 .bss           0x0807f97c        0x0 c:/altera/13.0/nios2eds/bin/gnu/h-i686-mingw32/bin/../lib/gcc/nios2-elf/4.1.2\libgcc.a(_thenan_df.o)
 .bss           0x0807f97c        0x0 c:/altera/13.0/nios2eds/bin/gnu/h-i686-mingw32/bin/../lib/gcc/nios2-elf/4.1.2\libgcc.a(_usi_to_df.o)
 .bss           0x0807f97c        0x0 c:/altera/13.0/nios2eds/bin/gnu/h-i686-mingw32/bin/../lib/gcc/nios2-elf/4.1.2\libgcc.a(_muldi3.o)
 .bss           0x0807f97c        0x0 c:/altera/13.0/nios2eds/bin/gnu/h-i686-mingw32/bin/../lib/gcc/nios2-elf/4.1.2\libgcc.a(_clzsi2.o)
 .bss           0x0807f97c        0x0 c:/altera/13.0/nios2eds/bin/gnu/h-i686-mingw32/bin/../lib/gcc/nios2-elf/4.1.2\libgcc.a(_pack_df.o)
 .bss           0x0807f97c        0x0 c:/altera/13.0/nios2eds/bin/gnu/h-i686-mingw32/bin/../lib/gcc/nios2-elf/4.1.2\libgcc.a(_unpack_df.o)
 .bss           0x0807f97c        0x0 c:/altera/13.0/nios2eds/bin/gnu/h-i686-mingw32/bin/../lib/gcc/nios2-elf/4.1.2\libgcc.a(_fpcmp_parts_df.o)
 .bss           0x0807f97c        0x0 c:/altera/13.0/nios2eds/bin/gnu/h-i686-mingw32/bin/../lib/gcc/nios2-elf/4.1.2\libgcc.a(_clz.o)
 .bss           0x0807f97c        0x0 c:/altera/13.0/nios2eds/bin/gnu/h-i686-mingw32/bin/../lib/gcc/nios2-elf/4.1.2/../../../../nios2-elf/lib\libc.a(lib_a-memcmp.o)
 .bss           0x0807f97c        0x0 c:/altera/13.0/nios2eds/bin/gnu/h-i686-mingw32/bin/../lib/gcc/nios2-elf/4.1.2/../../../../nios2-elf/lib\libc.a(lib_a-memcpy.o)
 .bss           0x0807f97c        0x0 c:/altera/13.0/nios2eds/bin/gnu/h-i686-mingw32/bin/../lib/gcc/nios2-elf/4.1.2/../../../../nios2-elf/lib\libc.a(lib_a-memset.o)
 .bss           0x0807f97c        0x0 c:/altera/13.0/nios2eds/bin/gnu/h-i686-mingw32/bin/../lib/gcc/nios2-elf/4.1.2/../../../../nios2-elf/lib\libc.a(lib_a-printf.o)
 .bss           0x0807f97c        0x0 c:/altera/13.0/nios2eds/bin/gnu/h-i686-mingw32/bin/../lib/gcc/nios2-elf/4.1.2/../../../../nios2-elf/lib\libc.a(lib_a-puts.o)
 .bss           0x0807f97c        0x0 c:/altera/13.0/nios2eds/bin/gnu/h-i686-mingw32/bin/../lib/gcc/nios2-elf/4.1.2/../../../../nios2-elf/lib\libc.a(lib_a-strlen.o)
 .bss           0x0807f97c        0x0 c:/altera/13.0/nios2eds/bin/gnu/h-i686-mingw32/bin/../lib/gcc/nios2-elf/4.1.2/../../../../nios2-elf/lib\libc.a(lib_a-vfprintf.o)
 .bss           0x0807f97c        0x0 c:/altera/13.0/nios2eds/bin/gnu/h-i686-mingw32/bin/../lib/gcc/nios2-elf/4.1.2/../../../../nios2-elf/lib\libc.a(lib_a-wsetup.o)
 .bss           0x0807f97c        0x0 c:/altera/13.0/nios2eds/bin/gnu/h-i686-mingw32/bin/../lib/gcc/nios2-elf/4.1.2/../../../../nios2-elf/lib\libc.a(lib_a-dtoa.o)
 .bss           0x0807f97c        0x0 c:/altera/13.0/nios2eds/bin/gnu/h-i686-mingw32/bin/../lib/gcc/nios2-elf/4.1.2/../../../../nios2-elf/lib\libc.a(lib_a-fflush.o)
 .bss           0x0807f97c        0x0 c:/altera/13.0/nios2eds/bin/gnu/h-i686-mingw32/bin/../lib/gcc/nios2-elf/4.1.2/../../../../nios2-elf/lib\libc.a(lib_a-findfp.o)
 .bss           0x0807f97c        0x0 c:/altera/13.0/nios2eds/bin/gnu/h-i686-mingw32/bin/../lib/gcc/nios2-elf/4.1.2/../../../../nios2-elf/lib\libc.a(lib_a-freer.o)
 .bss           0x0807f97c        0x0 c:/altera/13.0/nios2eds/bin/gnu/h-i686-mingw32/bin/../lib/gcc/nios2-elf/4.1.2/../../../../nios2-elf/lib\libc.a(lib_a-fvwrite.o)
 .bss           0x0807f97c        0x0 c:/altera/13.0/nios2eds/bin/gnu/h-i686-mingw32/bin/../lib/gcc/nios2-elf/4.1.2/../../../../nios2-elf/lib\libc.a(lib_a-fwalk.o)
 .bss           0x0807f97c        0x0 c:/altera/13.0/nios2eds/bin/gnu/h-i686-mingw32/bin/../lib/gcc/nios2-elf/4.1.2/../../../../nios2-elf/lib\libc.a(lib_a-impure.o)
 .bss           0x0807f97c        0x0 c:/altera/13.0/nios2eds/bin/gnu/h-i686-mingw32/bin/../lib/gcc/nios2-elf/4.1.2/../../../../nios2-elf/lib\libc.a(lib_a-locale.o)
 .bss           0x0807f97c        0x0 c:/altera/13.0/nios2eds/bin/gnu/h-i686-mingw32/bin/../lib/gcc/nios2-elf/4.1.2/../../../../nios2-elf/lib\libc.a(lib_a-makebuf.o)
 .bss           0x0807f97c       0x28 c:/altera/13.0/nios2eds/bin/gnu/h-i686-mingw32/bin/../lib/gcc/nios2-elf/4.1.2/../../../../nios2-elf/lib\libc.a(lib_a-mallocr.o)
                0x0807f97c                __malloc_current_mallinfo
 .bss           0x0807f9a4        0x0 c:/altera/13.0/nios2eds/bin/gnu/h-i686-mingw32/bin/../lib/gcc/nios2-elf/4.1.2/../../../../nios2-elf/lib\libc.a(lib_a-memchr.o)
 .bss           0x0807f9a4        0x0 c:/altera/13.0/nios2eds/bin/gnu/h-i686-mingw32/bin/../lib/gcc/nios2-elf/4.1.2/../../../../nios2-elf/lib\libc.a(lib_a-memmove.o)
 .bss           0x0807f9a4        0x0 c:/altera/13.0/nios2eds/bin/gnu/h-i686-mingw32/bin/../lib/gcc/nios2-elf/4.1.2/../../../../nios2-elf/lib\libc.a(lib_a-mprec.o)
 .bss           0x0807f9a4        0x0 c:/altera/13.0/nios2eds/bin/gnu/h-i686-mingw32/bin/../lib/gcc/nios2-elf/4.1.2/../../../../nios2-elf/lib\libc.a(lib_a-reallocr.o)
 .bss           0x0807f9a4        0x0 c:/altera/13.0/nios2eds/bin/gnu/h-i686-mingw32/bin/../lib/gcc/nios2-elf/4.1.2/../../../../nios2-elf/lib\libc.a(lib_a-s_isinfd.o)
 .bss           0x0807f9a4        0x0 c:/altera/13.0/nios2eds/bin/gnu/h-i686-mingw32/bin/../lib/gcc/nios2-elf/4.1.2/../../../../nios2-elf/lib\libc.a(lib_a-s_isnand.o)
 .bss           0x0807f9a4        0x0 c:/altera/13.0/nios2eds/bin/gnu/h-i686-mingw32/bin/../lib/gcc/nios2-elf/4.1.2/../../../../nios2-elf/lib\libc.a(lib_a-sbrkr.o)
 .bss           0x0807f9a4        0x0 c:/altera/13.0/nios2eds/bin/gnu/h-i686-mingw32/bin/../lib/gcc/nios2-elf/4.1.2/../../../../nios2-elf/lib\libc.a(lib_a-stdio.o)
 .bss           0x0807f9a4        0x0 c:/altera/13.0/nios2eds/bin/gnu/h-i686-mingw32/bin/../lib/gcc/nios2-elf/4.1.2/../../../../nios2-elf/lib\libc.a(lib_a-strcmp.o)
 .bss           0x0807f9a4        0x0 c:/altera/13.0/nios2eds/bin/gnu/h-i686-mingw32/bin/../lib/gcc/nios2-elf/4.1.2/../../../../nios2-elf/lib\libc.a(lib_a-writer.o)
 .bss           0x0807f9a4        0x0 c:/altera/13.0/nios2eds/bin/gnu/h-i686-mingw32/bin/../lib/gcc/nios2-elf/4.1.2/../../../../nios2-elf/lib\libc.a(lib_a-callocr.o)
 .bss           0x0807f9a4        0x0 c:/altera/13.0/nios2eds/bin/gnu/h-i686-mingw32/bin/../lib/gcc/nios2-elf/4.1.2/../../../../nios2-elf/lib\libc.a(lib_a-closer.o)
 .bss           0x0807f9a4        0x0 c:/altera/13.0/nios2eds/bin/gnu/h-i686-mingw32/bin/../lib/gcc/nios2-elf/4.1.2/../../../../nios2-elf/lib\libc.a(lib_a-fclose.o)
 .bss           0x0807f9a4        0x0 c:/altera/13.0/nios2eds/bin/gnu/h-i686-mingw32/bin/../lib/gcc/nios2-elf/4.1.2/../../../../nios2-elf/lib\libc.a(lib_a-fstatr.o)
 .bss           0x0807f9a4        0x0 c:/altera/13.0/nios2eds/bin/gnu/h-i686-mingw32/bin/../lib/gcc/nios2-elf/4.1.2/../../../../nios2-elf/lib\libc.a(lib_a-int_errno.o)
 .bss           0x0807f9a4        0x0 c:/altera/13.0/nios2eds/bin/gnu/h-i686-mingw32/bin/../lib/gcc/nios2-elf/4.1.2/../../../../nios2-elf/lib\libc.a(lib_a-isattyr.o)
 .bss           0x0807f9a4        0x0 c:/altera/13.0/nios2eds/bin/gnu/h-i686-mingw32/bin/../lib/gcc/nios2-elf/4.1.2/../../../../nios2-elf/lib\libc.a(lib_a-lseekr.o)
 .bss           0x0807f9a4        0x0 c:/altera/13.0/nios2eds/bin/gnu/h-i686-mingw32/bin/../lib/gcc/nios2-elf/4.1.2/../../../../nios2-elf/lib\libc.a(lib_a-readr.o)
 .bss           0x0807f9a4        0x0 c:/altera/13.0/nios2eds/bin/gnu/h-i686-mingw32/bin/../lib/gcc/nios2-elf/4.1.2\libgcc.a(_udivdi3.o)
 .bss           0x0807f9a4        0x0 c:/altera/13.0/nios2eds/bin/gnu/h-i686-mingw32/bin/../lib/gcc/nios2-elf/4.1.2\libgcc.a(_umoddi3.o)
 .bss           0x0807f9a4        0x0 c:/altera/13.0/nios2eds/bin/gnu/h-i686-mingw32/bin/../lib/gcc/nios2-elf/4.1.2\libgcc.a(_ne_df.o)
 .bss           0x0807f9a4        0x0 c:/altera/13.0/nios2eds/bin/gnu/h-i686-mingw32/bin/../lib/gcc/nios2-elf/4.1.2\libgcc.a(_gt_df.o)
 .bss           0x0807f9a4        0x0 c:/altera/13.0/nios2eds/bin/gnu/h-i686-mingw32/bin/../lib/gcc/nios2-elf/4.1.2\libgcc.a(_ge_df.o)
 .bss           0x0807f9a4        0x0 c:/altera/13.0/nios2eds/bin/gnu/h-i686-mingw32/bin/../lib/gcc/nios2-elf/4.1.2\libgcc.a(_lt_df.o)
 .bss           0x0807f9a4        0x0 c:/altera/13.0/nios2eds/bin/gnu/h-i686-mingw32/bin/../lib/gcc/nios2-elf/4.1.2\libgcc.a(_df_to_si.o)
 .bss           0x0807f9a4        0x0 c:/altera/13.0/nios2eds/bin/gnu/h-i686-mingw32/bin/../lib/gcc/nios2-elf/4.1.2\libgcc.a(lib2-divmod.o)
 .bss           0x0807f9a4        0x0 D:/cs723-assignment1/software/freertos_test_bsp/\libhal_bsp.a(alt_close.o)
 .bss           0x0807f9a4        0x0 D:/cs723-assignment1/software/freertos_test_bsp/\libhal_bsp.a(alt_dev.o)
 .bss           0x0807f9a4        0x0 D:/cs723-assignment1/software/freertos_test_bsp/\libhal_bsp.a(alt_errno.o)
 .bss           0x0807f9a4        0x0 D:/cs723-assignment1/software/freertos_test_bsp/\libhal_bsp.a(alt_fstat.o)
 .bss           0x0807f9a4        0x0 D:/cs723-assignment1/software/freertos_test_bsp/\libhal_bsp.a(alt_irq_handler.o)
 .bss           0x0807f9a4        0x0 D:/cs723-assignment1/software/freertos_test_bsp/\libhal_bsp.a(alt_irq_vars.o)
 .bss           0x0807f9a4        0x0 D:/cs723-assignment1/software/freertos_test_bsp/\libhal_bsp.a(alt_isatty.o)
 .bss           0x0807f9a4        0x0 D:/cs723-assignment1/software/freertos_test_bsp/\libhal_bsp.a(alt_lseek.o)
 .bss           0x0807f9a4        0x0 D:/cs723-assignment1/software/freertos_test_bsp/\libhal_bsp.a(alt_main.o)
 .bss           0x0807f9a4        0x0 D:/cs723-assignment1/software/freertos_test_bsp/\libhal_bsp.a(alt_malloc_lock.o)
 .bss           0x0807f9a4        0x0 D:/cs723-assignment1/software/freertos_test_bsp/\libhal_bsp.a(alt_read.o)
 .bss           0x0807f9a4        0x0 D:/cs723-assignment1/software/freertos_test_bsp/\libhal_bsp.a(alt_release_fd.o)
 .bss           0x0807f9a4        0x0 D:/cs723-assignment1/software/freertos_test_bsp/\libhal_bsp.a(alt_sbrk.o)
 .bss           0x0807f9a4        0x0 D:/cs723-assignment1/software/freertos_test_bsp/\libhal_bsp.a(alt_write.o)
 .bss           0x0807f9a4        0x0 D:/cs723-assignment1/software/freertos_test_bsp/\libhal_bsp.a(alt_sys_init.o)
 .bss           0x0807f9a4        0x0 D:/cs723-assignment1/software/freertos_test_bsp/\libhal_bsp.a(altera_avalon_cfi_flash.o)
 .bss           0x0807f9a4        0x0 D:/cs723-assignment1/software/freertos_test_bsp/\libhal_bsp.a(altera_avalon_cfi_flash_table.o)
 .bss           0x0807f9a4        0x0 D:/cs723-assignment1/software/freertos_test_bsp/\libhal_bsp.a(altera_avalon_jtag_uart_fd.o)
 .bss           0x0807f9a4        0x0 D:/cs723-assignment1/software/freertos_test_bsp/\libhal_bsp.a(altera_avalon_jtag_uart_init.o)
 .bss           0x0807f9a4        0x0 D:/cs723-assignment1/software/freertos_test_bsp/\libhal_bsp.a(altera_avalon_jtag_uart_ioctl.o)
 .bss           0x0807f9a4        0x0 D:/cs723-assignment1/software/freertos_test_bsp/\libhal_bsp.a(altera_avalon_jtag_uart_read.o)
 .bss           0x0807f9a4        0x0 D:/cs723-assignment1/software/freertos_test_bsp/\libhal_bsp.a(altera_avalon_jtag_uart_write.o)
 .bss           0x0807f9a4        0x0 D:/cs723-assignment1/software/freertos_test_bsp/\libhal_bsp.a(altera_avalon_lcd_16207.o)
 .bss           0x0807f9a4        0x0 D:/cs723-assignment1/software/freertos_test_bsp/\libhal_bsp.a(altera_avalon_lcd_16207_fd.o)
 .bss           0x0807f9a4        0x0 D:/cs723-assignment1/software/freertos_test_bsp/\libhal_bsp.a(altera_avalon_timer_sc.o)
 .bss           0x0807f9a4        0x0 D:/cs723-assignment1/software/freertos_test_bsp/\libhal_bsp.a(altera_avalon_uart_fd.o)
 .bss           0x0807f9a4        0x0 D:/cs723-assignment1/software/freertos_test_bsp/\libhal_bsp.a(altera_avalon_uart_init.o)
 .bss           0x0807f9a4        0x0 D:/cs723-assignment1/software/freertos_test_bsp/\libhal_bsp.a(altera_avalon_uart_read.o)
 .bss           0x0807f9a4        0x0 D:/cs723-assignment1/software/freertos_test_bsp/\libhal_bsp.a(altera_avalon_uart_write.o)
 .bss           0x0807f9a4        0x0 D:/cs723-assignment1/software/freertos_test_bsp/\libhal_bsp.a(altera_up_avalon_ps2.o)
 .bss           0x0807f9a4        0x0 D:/cs723-assignment1/software/freertos_test_bsp/\libhal_bsp.a(altera_up_avalon_video_character_buffer_with_dma.o)
 .bss           0x0807f9a4        0x0 D:/cs723-assignment1/software/freertos_test_bsp/\libhal_bsp.a(altera_up_avalon_video_pixel_buffer_dma.o)
 .bss           0x0807f9a4        0x0 D:/cs723-assignment1/software/freertos_test_bsp/\libhal_bsp.a(alt_alarm_start.o)
 .bss           0x0807f9a4        0x0 D:/cs723-assignment1/software/freertos_test_bsp/\libhal_bsp.a(alt_dcache_flush.o)
 .bss           0x0807f9a4        0x0 D:/cs723-assignment1/software/freertos_test_bsp/\libhal_bsp.a(alt_dev_llist_insert.o)
 .bss           0x0807f9a4        0x0 D:/cs723-assignment1/software/freertos_test_bsp/\libhal_bsp.a(alt_do_ctors.o)
 .bss           0x0807f9a4        0x0 D:/cs723-assignment1/software/freertos_test_bsp/\libhal_bsp.a(alt_do_dtors.o)
 .bss           0x0807f9a4        0x0 D:/cs723-assignment1/software/freertos_test_bsp/\libhal_bsp.a(alt_find_dev.o)
 .bss           0x0807f9a4        0x0 D:/cs723-assignment1/software/freertos_test_bsp/\libhal_bsp.a(alt_flash_dev.o)
 .bss           0x0807f9a4        0x0 D:/cs723-assignment1/software/freertos_test_bsp/\libhal_bsp.a(alt_io_redirect.o)
 .bss           0x0807f9a4        0x0 D:/cs723-assignment1/software/freertos_test_bsp/\libhal_bsp.a(alt_open.o)
 .bss           0x0807f9a4        0x0 D:/cs723-assignment1/software/freertos_test_bsp/\libhal_bsp.a(alt_tick.o)
 .bss           0x0807f9a4        0x0 D:/cs723-assignment1/software/freertos_test_bsp/\libhal_bsp.a(alt_usleep.o)
 .bss           0x0807f9a4        0x0 D:/cs723-assignment1/software/freertos_test_bsp/\libhal_bsp.a(altera_nios2_qsys_irq.o)
 .bss           0x0807f9a4        0x0 D:/cs723-assignment1/software/freertos_test_bsp/\libhal_bsp.a(altera_avalon_cfi_flash_amd.o)
 .bss           0x0807f9a4        0x0 D:/cs723-assignment1/software/freertos_test_bsp/\libhal_bsp.a(altera_avalon_cfi_flash_intel.o)
 .bss           0x0807f9a4        0x0 D:/cs723-assignment1/software/freertos_test_bsp/\libhal_bsp.a(alt_busy_sleep.o)
 .bss           0x0807f9a4        0x0 D:/cs723-assignment1/software/freertos_test_bsp/\libhal_bsp.a(alt_find_file.o)
 .bss           0x0807f9a4        0x0 D:/cs723-assignment1/software/freertos_test_bsp/\libhal_bsp.a(alt_get_fd.o)
 .bss           0x0807f9a4        0x0 c:/altera/13.0/nios2eds/bin/gnu/h-i686-mingw32/bin/../lib/gcc/nios2-elf/4.1.2/../../../../nios2-elf/lib\libc.a(lib_a-atexit.o)
 .bss           0x0807f9a4        0x0 c:/altera/13.0/nios2eds/bin/gnu/h-i686-mingw32/bin/../lib/gcc/nios2-elf/4.1.2/../../../../nios2-elf/lib\libc.a(lib_a-ctype_.o)
 .bss           0x0807f9a4        0x0 c:/altera/13.0/nios2eds/bin/gnu/h-i686-mingw32/bin/../lib/gcc/nios2-elf/4.1.2/../../../../nios2-elf/lib\libc.a(lib_a-exit.o)
 .bss           0x0807f9a4        0x0 c:/altera/13.0/nios2eds/bin/gnu/h-i686-mingw32/bin/../lib/gcc/nios2-elf/4.1.2/../../../../nios2-elf/lib\libc.a(lib_a-__atexit.o)
 .bss           0x0807f9a4        0x0 c:/altera/13.0/nios2eds/bin/gnu/h-i686-mingw32/bin/../lib/gcc/nios2-elf/4.1.2/../../../../nios2-elf/lib\libc.a(lib_a-__call_atexit.o)
 .bss           0x0807f9a4        0x0 D:/cs723-assignment1/software/freertos_test_bsp/\libhal_bsp.a(alt_exit.o)
 *(COMMON)
 COMMON         0x0807f9a4      0x100 D:/cs723-assignment1/software/freertos_test_bsp/\libhal_bsp.a(alt_irq_handler.o)
                0x0807f9a4                alt_irq
 COMMON         0x0807faa4      0x190 c:/altera/13.0/nios2eds/bin/gnu/h-i686-mingw32/bin/../lib/gcc/nios2-elf/4.1.2/../../../../nios2-elf/lib\libc.a(lib_a-atexit.o)
                0x0807faa4                _atexit0
                0x0807fc34                . = ALIGN (0x4)
                0x0807fc34                __bss_end = ABSOLUTE (.)

.onchip_memory  0x0001786c        0x0
                0x0001786c                PROVIDE (_alt_partition_onchip_memory_start, ABSOLUTE (.))
 *(.onchip_memory. onchip_memory.*)
                0x0001786c                . = ALIGN (0x4)
                0x0001786c                PROVIDE (_alt_partition_onchip_memory_end, ABSOLUTE (.))
                0x0001786c                PROVIDE (_alt_partition_onchip_memory_load_addr, LOADADDR (.onchip_memory))

.flash_controller
                0x01000020        0x0
                0x01000020                PROVIDE (_alt_partition_flash_controller_start, ABSOLUTE (.))
 *(.flash_controller. flash_controller.*)
                0x01000020                . = ALIGN (0x4)
                0x01000020                PROVIDE (_alt_partition_flash_controller_end, ABSOLUTE (.))
                0x01000020                PROVIDE (_alt_partition_flash_controller_load_addr, LOADADDR (.flash_controller))

.sdram          0x0807fc34        0x0
                0x0807fc34                PROVIDE (_alt_partition_sdram_start, ABSOLUTE (.))
 *(.sdram. sdram.*)
                0x0807fc34                . = ALIGN (0x4)
                0x0807fc34                PROVIDE (_alt_partition_sdram_end, ABSOLUTE (.))
                0x0807fc34                _end = ABSOLUTE (.)
                0x0807fc34                end = ABSOLUTE (.)
                0x0807fc34                __alt_stack_base = ABSOLUTE (.)
                0x0807fc34                PROVIDE (_alt_partition_sdram_load_addr, LOADADDR (.sdram))

.stab
 *(.stab)

.stabstr
 *(.stabstr)

.stab.excl
 *(.stab.excl)

.stab.exclstr
 *(.stab.exclstr)

.stab.index
 *(.stab.index)

.stab.indexstr
 *(.stab.indexstr)

.comment        0x00000000       0x23
 *(.comment)
 .comment       0x00000000       0x23 obj/default//D/cs723-assignment1/software/freertos_test/freertos/croutine.o
                                 0x24 (size before relaxing)
 .comment       0x00000000       0x24 obj/default//D/cs723-assignment1/software/freertos_test/freertos/event_groups.o
 .comment       0x00000000       0x24 obj/default//D/cs723-assignment1/software/freertos_test/freertos/heap.o
 .comment       0x00000000       0x24 obj/default//D/cs723-assignment1/software/freertos_test/freertos/list.o
 .comment       0x00000000       0x24 obj/default//D/cs723-assignment1/software/freertos_test/freertos/port.o
 .comment       0x00000000       0x24 obj/default//D/cs723-assignment1/software/freertos_test/freertos/queue.o
 .comment       0x00000000       0x24 obj/default//D/cs723-assignment1/software/freertos_test/freertos/tasks.o
 .comment       0x00000000       0x24 obj/default//D/cs723-assignment1/software/freertos_test/freertos/timers.o
 .comment       0x00000000       0x24 obj/default//D/cs723-assignment1/software/freertos_test/freertos_test.o
 .comment       0x00000000       0x24 c:/altera/13.0/nios2eds/bin/gnu/h-i686-mingw32/bin/../lib/gcc/nios2-elf/4.1.2\libgcc.a(_addsub_df.o)
 .comment       0x00000000       0x24 c:/altera/13.0/nios2eds/bin/gnu/h-i686-mingw32/bin/../lib/gcc/nios2-elf/4.1.2\libgcc.a(_mul_df.o)
 .comment       0x00000000       0x24 c:/altera/13.0/nios2eds/bin/gnu/h-i686-mingw32/bin/../lib/gcc/nios2-elf/4.1.2\libgcc.a(_div_df.o)
 .comment       0x00000000       0x24 c:/altera/13.0/nios2eds/bin/gnu/h-i686-mingw32/bin/../lib/gcc/nios2-elf/4.1.2\libgcc.a(_eq_df.o)
 .comment       0x00000000       0x24 c:/altera/13.0/nios2eds/bin/gnu/h-i686-mingw32/bin/../lib/gcc/nios2-elf/4.1.2\libgcc.a(_si_to_df.o)
 .comment       0x00000000       0x24 c:/altera/13.0/nios2eds/bin/gnu/h-i686-mingw32/bin/../lib/gcc/nios2-elf/4.1.2\libgcc.a(_thenan_df.o)
 .comment       0x00000000       0x24 c:/altera/13.0/nios2eds/bin/gnu/h-i686-mingw32/bin/../lib/gcc/nios2-elf/4.1.2\libgcc.a(_usi_to_df.o)
 .comment       0x00000000       0x24 c:/altera/13.0/nios2eds/bin/gnu/h-i686-mingw32/bin/../lib/gcc/nios2-elf/4.1.2\libgcc.a(_muldi3.o)
 .comment       0x00000000       0x24 c:/altera/13.0/nios2eds/bin/gnu/h-i686-mingw32/bin/../lib/gcc/nios2-elf/4.1.2\libgcc.a(_clzsi2.o)
 .comment       0x00000000       0x24 c:/altera/13.0/nios2eds/bin/gnu/h-i686-mingw32/bin/../lib/gcc/nios2-elf/4.1.2\libgcc.a(_pack_df.o)
 .comment       0x00000000       0x24 c:/altera/13.0/nios2eds/bin/gnu/h-i686-mingw32/bin/../lib/gcc/nios2-elf/4.1.2\libgcc.a(_unpack_df.o)
 .comment       0x00000000       0x24 c:/altera/13.0/nios2eds/bin/gnu/h-i686-mingw32/bin/../lib/gcc/nios2-elf/4.1.2\libgcc.a(_fpcmp_parts_df.o)
 .comment       0x00000000       0x24 c:/altera/13.0/nios2eds/bin/gnu/h-i686-mingw32/bin/../lib/gcc/nios2-elf/4.1.2\libgcc.a(_clz.o)
 .comment       0x00000000       0x24 c:/altera/13.0/nios2eds/bin/gnu/h-i686-mingw32/bin/../lib/gcc/nios2-elf/4.1.2/../../../../nios2-elf/lib\libc.a(lib_a-memcmp.o)
 .comment       0x00000000       0x24 c:/altera/13.0/nios2eds/bin/gnu/h-i686-mingw32/bin/../lib/gcc/nios2-elf/4.1.2/../../../../nios2-elf/lib\libc.a(lib_a-memcpy.o)
 .comment       0x00000000       0x24 c:/altera/13.0/nios2eds/bin/gnu/h-i686-mingw32/bin/../lib/gcc/nios2-elf/4.1.2/../../../../nios2-elf/lib\libc.a(lib_a-memset.o)
 .comment       0x00000000       0x24 c:/altera/13.0/nios2eds/bin/gnu/h-i686-mingw32/bin/../lib/gcc/nios2-elf/4.1.2/../../../../nios2-elf/lib\libc.a(lib_a-printf.o)
 .comment       0x00000000       0x24 c:/altera/13.0/nios2eds/bin/gnu/h-i686-mingw32/bin/../lib/gcc/nios2-elf/4.1.2/../../../../nios2-elf/lib\libc.a(lib_a-puts.o)
 .comment       0x00000000       0x24 c:/altera/13.0/nios2eds/bin/gnu/h-i686-mingw32/bin/../lib/gcc/nios2-elf/4.1.2/../../../../nios2-elf/lib\libc.a(lib_a-strlen.o)
 .comment       0x00000000       0x24 c:/altera/13.0/nios2eds/bin/gnu/h-i686-mingw32/bin/../lib/gcc/nios2-elf/4.1.2/../../../../nios2-elf/lib\libc.a(lib_a-vfprintf.o)
 .comment       0x00000000       0x24 c:/altera/13.0/nios2eds/bin/gnu/h-i686-mingw32/bin/../lib/gcc/nios2-elf/4.1.2/../../../../nios2-elf/lib\libc.a(lib_a-wsetup.o)
 .comment       0x00000000       0x24 c:/altera/13.0/nios2eds/bin/gnu/h-i686-mingw32/bin/../lib/gcc/nios2-elf/4.1.2/../../../../nios2-elf/lib\libc.a(lib_a-dtoa.o)
 .comment       0x00000000       0x24 c:/altera/13.0/nios2eds/bin/gnu/h-i686-mingw32/bin/../lib/gcc/nios2-elf/4.1.2/../../../../nios2-elf/lib\libc.a(lib_a-fflush.o)
 .comment       0x00000000       0x24 c:/altera/13.0/nios2eds/bin/gnu/h-i686-mingw32/bin/../lib/gcc/nios2-elf/4.1.2/../../../../nios2-elf/lib\libc.a(lib_a-findfp.o)
 .comment       0x00000000       0x24 c:/altera/13.0/nios2eds/bin/gnu/h-i686-mingw32/bin/../lib/gcc/nios2-elf/4.1.2/../../../../nios2-elf/lib\libc.a(lib_a-freer.o)
 .comment       0x00000000       0x24 c:/altera/13.0/nios2eds/bin/gnu/h-i686-mingw32/bin/../lib/gcc/nios2-elf/4.1.2/../../../../nios2-elf/lib\libc.a(lib_a-fvwrite.o)
 .comment       0x00000000       0x24 c:/altera/13.0/nios2eds/bin/gnu/h-i686-mingw32/bin/../lib/gcc/nios2-elf/4.1.2/../../../../nios2-elf/lib\libc.a(lib_a-fwalk.o)
 .comment       0x00000000       0x24 c:/altera/13.0/nios2eds/bin/gnu/h-i686-mingw32/bin/../lib/gcc/nios2-elf/4.1.2/../../../../nios2-elf/lib\libc.a(lib_a-impure.o)
 .comment       0x00000000       0x24 c:/altera/13.0/nios2eds/bin/gnu/h-i686-mingw32/bin/../lib/gcc/nios2-elf/4.1.2/../../../../nios2-elf/lib\libc.a(lib_a-locale.o)
 .comment       0x00000000       0x24 c:/altera/13.0/nios2eds/bin/gnu/h-i686-mingw32/bin/../lib/gcc/nios2-elf/4.1.2/../../../../nios2-elf/lib\libc.a(lib_a-makebuf.o)
 .comment       0x00000000       0x24 c:/altera/13.0/nios2eds/bin/gnu/h-i686-mingw32/bin/../lib/gcc/nios2-elf/4.1.2/../../../../nios2-elf/lib\libc.a(lib_a-mallocr.o)
 .comment       0x00000000       0x24 c:/altera/13.0/nios2eds/bin/gnu/h-i686-mingw32/bin/../lib/gcc/nios2-elf/4.1.2/../../../../nios2-elf/lib\libc.a(lib_a-memchr.o)
 .comment       0x00000000       0x24 c:/altera/13.0/nios2eds/bin/gnu/h-i686-mingw32/bin/../lib/gcc/nios2-elf/4.1.2/../../../../nios2-elf/lib\libc.a(lib_a-memmove.o)
 .comment       0x00000000       0x24 c:/altera/13.0/nios2eds/bin/gnu/h-i686-mingw32/bin/../lib/gcc/nios2-elf/4.1.2/../../../../nios2-elf/lib\libc.a(lib_a-mprec.o)
 .comment       0x00000000       0x24 c:/altera/13.0/nios2eds/bin/gnu/h-i686-mingw32/bin/../lib/gcc/nios2-elf/4.1.2/../../../../nios2-elf/lib\libc.a(lib_a-reallocr.o)
 .comment       0x00000000       0x24 c:/altera/13.0/nios2eds/bin/gnu/h-i686-mingw32/bin/../lib/gcc/nios2-elf/4.1.2/../../../../nios2-elf/lib\libc.a(lib_a-s_isinfd.o)
 .comment       0x00000000       0x24 c:/altera/13.0/nios2eds/bin/gnu/h-i686-mingw32/bin/../lib/gcc/nios2-elf/4.1.2/../../../../nios2-elf/lib\libc.a(lib_a-s_isnand.o)
 .comment       0x00000000       0x24 c:/altera/13.0/nios2eds/bin/gnu/h-i686-mingw32/bin/../lib/gcc/nios2-elf/4.1.2/../../../../nios2-elf/lib\libc.a(lib_a-sbrkr.o)
 .comment       0x00000000       0x24 c:/altera/13.0/nios2eds/bin/gnu/h-i686-mingw32/bin/../lib/gcc/nios2-elf/4.1.2/../../../../nios2-elf/lib\libc.a(lib_a-stdio.o)
 .comment       0x00000000       0x24 c:/altera/13.0/nios2eds/bin/gnu/h-i686-mingw32/bin/../lib/gcc/nios2-elf/4.1.2/../../../../nios2-elf/lib\libc.a(lib_a-strcmp.o)
 .comment       0x00000000       0x24 c:/altera/13.0/nios2eds/bin/gnu/h-i686-mingw32/bin/../lib/gcc/nios2-elf/4.1.2/../../../../nios2-elf/lib\libc.a(lib_a-writer.o)
 .comment       0x00000000       0x24 c:/altera/13.0/nios2eds/bin/gnu/h-i686-mingw32/bin/../lib/gcc/nios2-elf/4.1.2/../../../../nios2-elf/lib\libc.a(lib_a-callocr.o)
 .comment       0x00000000       0x24 c:/altera/13.0/nios2eds/bin/gnu/h-i686-mingw32/bin/../lib/gcc/nios2-elf/4.1.2/../../../../nios2-elf/lib\libc.a(lib_a-closer.o)
 .comment       0x00000000       0x24 c:/altera/13.0/nios2eds/bin/gnu/h-i686-mingw32/bin/../lib/gcc/nios2-elf/4.1.2/../../../../nios2-elf/lib\libc.a(lib_a-fclose.o)
 .comment       0x00000000       0x24 c:/altera/13.0/nios2eds/bin/gnu/h-i686-mingw32/bin/../lib/gcc/nios2-elf/4.1.2/../../../../nios2-elf/lib\libc.a(lib_a-fstatr.o)
 .comment       0x00000000       0x24 c:/altera/13.0/nios2eds/bin/gnu/h-i686-mingw32/bin/../lib/gcc/nios2-elf/4.1.2/../../../../nios2-elf/lib\libc.a(lib_a-int_errno.o)
 .comment       0x00000000       0x24 c:/altera/13.0/nios2eds/bin/gnu/h-i686-mingw32/bin/../lib/gcc/nios2-elf/4.1.2/../../../../nios2-elf/lib\libc.a(lib_a-isattyr.o)
 .comment       0x00000000       0x24 c:/altera/13.0/nios2eds/bin/gnu/h-i686-mingw32/bin/../lib/gcc/nios2-elf/4.1.2/../../../../nios2-elf/lib\libc.a(lib_a-lseekr.o)
 .comment       0x00000000       0x24 c:/altera/13.0/nios2eds/bin/gnu/h-i686-mingw32/bin/../lib/gcc/nios2-elf/4.1.2/../../../../nios2-elf/lib\libc.a(lib_a-readr.o)
 .comment       0x00000000       0x24 c:/altera/13.0/nios2eds/bin/gnu/h-i686-mingw32/bin/../lib/gcc/nios2-elf/4.1.2\libgcc.a(_udivdi3.o)
 .comment       0x00000000       0x24 c:/altera/13.0/nios2eds/bin/gnu/h-i686-mingw32/bin/../lib/gcc/nios2-elf/4.1.2\libgcc.a(_umoddi3.o)
 .comment       0x00000000       0x24 c:/altera/13.0/nios2eds/bin/gnu/h-i686-mingw32/bin/../lib/gcc/nios2-elf/4.1.2\libgcc.a(_ne_df.o)
 .comment       0x00000000       0x24 c:/altera/13.0/nios2eds/bin/gnu/h-i686-mingw32/bin/../lib/gcc/nios2-elf/4.1.2\libgcc.a(_gt_df.o)
 .comment       0x00000000       0x24 c:/altera/13.0/nios2eds/bin/gnu/h-i686-mingw32/bin/../lib/gcc/nios2-elf/4.1.2\libgcc.a(_ge_df.o)
 .comment       0x00000000       0x24 c:/altera/13.0/nios2eds/bin/gnu/h-i686-mingw32/bin/../lib/gcc/nios2-elf/4.1.2\libgcc.a(_lt_df.o)
 .comment       0x00000000       0x24 c:/altera/13.0/nios2eds/bin/gnu/h-i686-mingw32/bin/../lib/gcc/nios2-elf/4.1.2\libgcc.a(_df_to_si.o)
 .comment       0x00000000       0x24 c:/altera/13.0/nios2eds/bin/gnu/h-i686-mingw32/bin/../lib/gcc/nios2-elf/4.1.2\libgcc.a(lib2-divmod.o)
 .comment       0x00000000       0x24 D:/cs723-assignment1/software/freertos_test_bsp/\libhal_bsp.a(alt_close.o)
 .comment       0x00000000       0x24 D:/cs723-assignment1/software/freertos_test_bsp/\libhal_bsp.a(alt_dev.o)
 .comment       0x00000000       0x24 D:/cs723-assignment1/software/freertos_test_bsp/\libhal_bsp.a(alt_errno.o)
 .comment       0x00000000       0x24 D:/cs723-assignment1/software/freertos_test_bsp/\libhal_bsp.a(alt_fstat.o)
 .comment       0x00000000       0x24 D:/cs723-assignment1/software/freertos_test_bsp/\libhal_bsp.a(alt_irq_handler.o)
 .comment       0x00000000       0x24 D:/cs723-assignment1/software/freertos_test_bsp/\libhal_bsp.a(alt_irq_vars.o)
 .comment       0x00000000       0x24 D:/cs723-assignment1/software/freertos_test_bsp/\libhal_bsp.a(alt_isatty.o)
 .comment       0x00000000       0x24 D:/cs723-assignment1/software/freertos_test_bsp/\libhal_bsp.a(alt_lseek.o)
 .comment       0x00000000       0x24 D:/cs723-assignment1/software/freertos_test_bsp/\libhal_bsp.a(alt_main.o)
 .comment       0x00000000       0x24 D:/cs723-assignment1/software/freertos_test_bsp/\libhal_bsp.a(alt_malloc_lock.o)
 .comment       0x00000000       0x24 D:/cs723-assignment1/software/freertos_test_bsp/\libhal_bsp.a(alt_read.o)
 .comment       0x00000000       0x24 D:/cs723-assignment1/software/freertos_test_bsp/\libhal_bsp.a(alt_release_fd.o)
 .comment       0x00000000       0x24 D:/cs723-assignment1/software/freertos_test_bsp/\libhal_bsp.a(alt_sbrk.o)
 .comment       0x00000000       0x24 D:/cs723-assignment1/software/freertos_test_bsp/\libhal_bsp.a(alt_write.o)
 .comment       0x00000000       0x24 D:/cs723-assignment1/software/freertos_test_bsp/\libhal_bsp.a(alt_sys_init.o)
 .comment       0x00000000       0x24 D:/cs723-assignment1/software/freertos_test_bsp/\libhal_bsp.a(altera_avalon_cfi_flash.o)
 .comment       0x00000000       0x24 D:/cs723-assignment1/software/freertos_test_bsp/\libhal_bsp.a(altera_avalon_cfi_flash_table.o)
 .comment       0x00000000       0x24 D:/cs723-assignment1/software/freertos_test_bsp/\libhal_bsp.a(altera_avalon_jtag_uart_fd.o)
 .comment       0x00000000       0x24 D:/cs723-assignment1/software/freertos_test_bsp/\libhal_bsp.a(altera_avalon_jtag_uart_init.o)
 .comment       0x00000000       0x24 D:/cs723-assignment1/software/freertos_test_bsp/\libhal_bsp.a(altera_avalon_jtag_uart_ioctl.o)
 .comment       0x00000000       0x24 D:/cs723-assignment1/software/freertos_test_bsp/\libhal_bsp.a(altera_avalon_jtag_uart_read.o)
 .comment       0x00000000       0x24 D:/cs723-assignment1/software/freertos_test_bsp/\libhal_bsp.a(altera_avalon_jtag_uart_write.o)
 .comment       0x00000000       0x24 D:/cs723-assignment1/software/freertos_test_bsp/\libhal_bsp.a(altera_avalon_lcd_16207.o)
 .comment       0x00000000       0x24 D:/cs723-assignment1/software/freertos_test_bsp/\libhal_bsp.a(altera_avalon_lcd_16207_fd.o)
 .comment       0x00000000       0x24 D:/cs723-assignment1/software/freertos_test_bsp/\libhal_bsp.a(altera_avalon_timer_sc.o)
 .comment       0x00000000       0x24 D:/cs723-assignment1/software/freertos_test_bsp/\libhal_bsp.a(altera_avalon_uart_fd.o)
 .comment       0x00000000       0x24 D:/cs723-assignment1/software/freertos_test_bsp/\libhal_bsp.a(altera_avalon_uart_init.o)
 .comment       0x00000000       0x24 D:/cs723-assignment1/software/freertos_test_bsp/\libhal_bsp.a(altera_avalon_uart_read.o)
 .comment       0x00000000       0x24 D:/cs723-assignment1/software/freertos_test_bsp/\libhal_bsp.a(altera_avalon_uart_write.o)
 .comment       0x00000000       0x24 D:/cs723-assignment1/software/freertos_test_bsp/\libhal_bsp.a(altera_up_avalon_ps2.o)
 .comment       0x00000000       0x24 D:/cs723-assignment1/software/freertos_test_bsp/\libhal_bsp.a(altera_up_avalon_video_character_buffer_with_dma.o)
 .comment       0x00000000       0x24 D:/cs723-assignment1/software/freertos_test_bsp/\libhal_bsp.a(altera_up_avalon_video_pixel_buffer_dma.o)
 .comment       0x00000000       0x24 D:/cs723-assignment1/software/freertos_test_bsp/\libhal_bsp.a(alt_alarm_start.o)
 .comment       0x00000000       0x24 D:/cs723-assignment1/software/freertos_test_bsp/\libhal_bsp.a(alt_dcache_flush.o)
 .comment       0x00000000       0x24 D:/cs723-assignment1/software/freertos_test_bsp/\libhal_bsp.a(alt_dev_llist_insert.o)
 .comment       0x00000000       0x24 D:/cs723-assignment1/software/freertos_test_bsp/\libhal_bsp.a(alt_do_ctors.o)
 .comment       0x00000000       0x24 D:/cs723-assignment1/software/freertos_test_bsp/\libhal_bsp.a(alt_do_dtors.o)
 .comment       0x00000000       0x24 D:/cs723-assignment1/software/freertos_test_bsp/\libhal_bsp.a(alt_find_dev.o)
 .comment       0x00000000       0x24 D:/cs723-assignment1/software/freertos_test_bsp/\libhal_bsp.a(alt_flash_dev.o)
 .comment       0x00000000       0x24 D:/cs723-assignment1/software/freertos_test_bsp/\libhal_bsp.a(alt_io_redirect.o)
 .comment       0x00000000       0x24 D:/cs723-assignment1/software/freertos_test_bsp/\libhal_bsp.a(alt_open.o)
 .comment       0x00000000       0x24 D:/cs723-assignment1/software/freertos_test_bsp/\libhal_bsp.a(alt_tick.o)
 .comment       0x00000000       0x24 D:/cs723-assignment1/software/freertos_test_bsp/\libhal_bsp.a(alt_usleep.o)
 .comment       0x00000000       0x24 D:/cs723-assignment1/software/freertos_test_bsp/\libhal_bsp.a(altera_nios2_qsys_irq.o)
 .comment       0x00000000       0x24 D:/cs723-assignment1/software/freertos_test_bsp/\libhal_bsp.a(altera_avalon_cfi_flash_amd.o)
 .comment       0x00000000       0x24 D:/cs723-assignment1/software/freertos_test_bsp/\libhal_bsp.a(altera_avalon_cfi_flash_intel.o)
 .comment       0x00000000       0x24 D:/cs723-assignment1/software/freertos_test_bsp/\libhal_bsp.a(alt_busy_sleep.o)
 .comment       0x00000000       0x24 D:/cs723-assignment1/software/freertos_test_bsp/\libhal_bsp.a(alt_find_file.o)
 .comment       0x00000000       0x24 D:/cs723-assignment1/software/freertos_test_bsp/\libhal_bsp.a(alt_get_fd.o)
 .comment       0x00000000       0x24 c:/altera/13.0/nios2eds/bin/gnu/h-i686-mingw32/bin/../lib/gcc/nios2-elf/4.1.2/../../../../nios2-elf/lib\libc.a(lib_a-atexit.o)
 .comment       0x00000000       0x24 c:/altera/13.0/nios2eds/bin/gnu/h-i686-mingw32/bin/../lib/gcc/nios2-elf/4.1.2/../../../../nios2-elf/lib\libc.a(lib_a-ctype_.o)
 .comment       0x00000000       0x24 c:/altera/13.0/nios2eds/bin/gnu/h-i686-mingw32/bin/../lib/gcc/nios2-elf/4.1.2/../../../../nios2-elf/lib\libc.a(lib_a-exit.o)
 .comment       0x00000000       0x24 c:/altera/13.0/nios2eds/bin/gnu/h-i686-mingw32/bin/../lib/gcc/nios2-elf/4.1.2/../../../../nios2-elf/lib\libc.a(lib_a-__atexit.o)
 .comment       0x00000000       0x24 c:/altera/13.0/nios2eds/bin/gnu/h-i686-mingw32/bin/../lib/gcc/nios2-elf/4.1.2/../../../../nios2-elf/lib\libc.a(lib_a-__call_atexit.o)
 .comment       0x00000000       0x24 D:/cs723-assignment1/software/freertos_test_bsp/\libhal_bsp.a(alt_exit.o)

.debug
 *(.debug)

.line
 *(.line)

.debug_srcinfo
 *(.debug_srcinfo)

.debug_sfnames
 *(.debug_sfnames)

.debug_aranges  0x00000000      0xea8
 *(.debug_aranges)
 .debug_aranges
                0x00000000       0x20 D:/cs723-assignment1/software/freertos_test_bsp//obj/HAL/src/crt0.o
 .debug_aranges
                0x00000020       0x20 obj/default//D/cs723-assignment1/software/freertos_test/freertos/croutine.o
 .debug_aranges
                0x00000040       0x20 obj/default//D/cs723-assignment1/software/freertos_test/freertos/event_groups.o
 .debug_aranges
                0x00000060       0x20 obj/default//D/cs723-assignment1/software/freertos_test/freertos/heap.o
 .debug_aranges
                0x00000080       0x20 obj/default//D/cs723-assignment1/software/freertos_test/freertos/list.o
 .debug_aranges
                0x000000a0       0x20 obj/default//D/cs723-assignment1/software/freertos_test/freertos/port.o
 .debug_aranges
                0x000000c0       0x20 obj/default//D/cs723-assignment1/software/freertos_test/freertos/queue.o
 .debug_aranges
                0x000000e0       0x20 obj/default//D/cs723-assignment1/software/freertos_test/freertos/tasks.o
 .debug_aranges
                0x00000100       0x20 obj/default//D/cs723-assignment1/software/freertos_test/freertos/timers.o
 .debug_aranges
                0x00000120       0x20 obj/default//D/cs723-assignment1/software/freertos_test/freertos_test.o
 .debug_aranges
                0x00000140       0x40 obj/default//D/cs723-assignment1/software/freertos_test/freertos/port_asm.o
 .debug_aranges
                0x00000180       0x20 c:/altera/13.0/nios2eds/bin/gnu/h-i686-mingw32/bin/../lib/gcc/nios2-elf/4.1.2\libgcc.a(_addsub_df.o)
 .debug_aranges
                0x000001a0       0x20 c:/altera/13.0/nios2eds/bin/gnu/h-i686-mingw32/bin/../lib/gcc/nios2-elf/4.1.2\libgcc.a(_mul_df.o)
 .debug_aranges
                0x000001c0       0x20 c:/altera/13.0/nios2eds/bin/gnu/h-i686-mingw32/bin/../lib/gcc/nios2-elf/4.1.2\libgcc.a(_div_df.o)
 .debug_aranges
                0x000001e0       0x20 c:/altera/13.0/nios2eds/bin/gnu/h-i686-mingw32/bin/../lib/gcc/nios2-elf/4.1.2\libgcc.a(_eq_df.o)
 .debug_aranges
                0x00000200       0x20 c:/altera/13.0/nios2eds/bin/gnu/h-i686-mingw32/bin/../lib/gcc/nios2-elf/4.1.2\libgcc.a(_si_to_df.o)
 .debug_aranges
                0x00000220       0x20 c:/altera/13.0/nios2eds/bin/gnu/h-i686-mingw32/bin/../lib/gcc/nios2-elf/4.1.2\libgcc.a(_usi_to_df.o)
 .debug_aranges
                0x00000240       0x20 c:/altera/13.0/nios2eds/bin/gnu/h-i686-mingw32/bin/../lib/gcc/nios2-elf/4.1.2\libgcc.a(_muldi3.o)
 .debug_aranges
                0x00000260       0x20 c:/altera/13.0/nios2eds/bin/gnu/h-i686-mingw32/bin/../lib/gcc/nios2-elf/4.1.2\libgcc.a(_clzsi2.o)
 .debug_aranges
                0x00000280       0x20 c:/altera/13.0/nios2eds/bin/gnu/h-i686-mingw32/bin/../lib/gcc/nios2-elf/4.1.2\libgcc.a(_pack_df.o)
 .debug_aranges
                0x000002a0       0x20 c:/altera/13.0/nios2eds/bin/gnu/h-i686-mingw32/bin/../lib/gcc/nios2-elf/4.1.2\libgcc.a(_unpack_df.o)
 .debug_aranges
                0x000002c0       0x20 c:/altera/13.0/nios2eds/bin/gnu/h-i686-mingw32/bin/../lib/gcc/nios2-elf/4.1.2\libgcc.a(_fpcmp_parts_df.o)
 .debug_aranges
                0x000002e0       0x20 c:/altera/13.0/nios2eds/bin/gnu/h-i686-mingw32/bin/../lib/gcc/nios2-elf/4.1.2/../../../../nios2-elf/lib\libc.a(lib_a-memcmp.o)
 .debug_aranges
                0x00000300       0x20 c:/altera/13.0/nios2eds/bin/gnu/h-i686-mingw32/bin/../lib/gcc/nios2-elf/4.1.2/../../../../nios2-elf/lib\libc.a(lib_a-memcpy.o)
 .debug_aranges
                0x00000320       0x20 c:/altera/13.0/nios2eds/bin/gnu/h-i686-mingw32/bin/../lib/gcc/nios2-elf/4.1.2/../../../../nios2-elf/lib\libc.a(lib_a-memset.o)
 .debug_aranges
                0x00000340       0x20 c:/altera/13.0/nios2eds/bin/gnu/h-i686-mingw32/bin/../lib/gcc/nios2-elf/4.1.2/../../../../nios2-elf/lib\libc.a(lib_a-printf.o)
 .debug_aranges
                0x00000360       0x20 c:/altera/13.0/nios2eds/bin/gnu/h-i686-mingw32/bin/../lib/gcc/nios2-elf/4.1.2/../../../../nios2-elf/lib\libc.a(lib_a-puts.o)
 .debug_aranges
                0x00000380       0x20 c:/altera/13.0/nios2eds/bin/gnu/h-i686-mingw32/bin/../lib/gcc/nios2-elf/4.1.2/../../../../nios2-elf/lib\libc.a(lib_a-strlen.o)
 .debug_aranges
                0x000003a0       0x20 c:/altera/13.0/nios2eds/bin/gnu/h-i686-mingw32/bin/../lib/gcc/nios2-elf/4.1.2/../../../../nios2-elf/lib\libc.a(lib_a-vfprintf.o)
 .debug_aranges
                0x000003c0       0x20 c:/altera/13.0/nios2eds/bin/gnu/h-i686-mingw32/bin/../lib/gcc/nios2-elf/4.1.2/../../../../nios2-elf/lib\libc.a(lib_a-wsetup.o)
 .debug_aranges
                0x000003e0       0x20 c:/altera/13.0/nios2eds/bin/gnu/h-i686-mingw32/bin/../lib/gcc/nios2-elf/4.1.2/../../../../nios2-elf/lib\libc.a(lib_a-dtoa.o)
 .debug_aranges
                0x00000400       0x20 c:/altera/13.0/nios2eds/bin/gnu/h-i686-mingw32/bin/../lib/gcc/nios2-elf/4.1.2/../../../../nios2-elf/lib\libc.a(lib_a-fflush.o)
 .debug_aranges
                0x00000420       0x20 c:/altera/13.0/nios2eds/bin/gnu/h-i686-mingw32/bin/../lib/gcc/nios2-elf/4.1.2/../../../../nios2-elf/lib\libc.a(lib_a-findfp.o)
 .debug_aranges
                0x00000440       0x20 c:/altera/13.0/nios2eds/bin/gnu/h-i686-mingw32/bin/../lib/gcc/nios2-elf/4.1.2/../../../../nios2-elf/lib\libc.a(lib_a-freer.o)
 .debug_aranges
                0x00000460       0x20 c:/altera/13.0/nios2eds/bin/gnu/h-i686-mingw32/bin/../lib/gcc/nios2-elf/4.1.2/../../../../nios2-elf/lib\libc.a(lib_a-fvwrite.o)
 .debug_aranges
                0x00000480       0x20 c:/altera/13.0/nios2eds/bin/gnu/h-i686-mingw32/bin/../lib/gcc/nios2-elf/4.1.2/../../../../nios2-elf/lib\libc.a(lib_a-fwalk.o)
 .debug_aranges
                0x000004a0       0x20 c:/altera/13.0/nios2eds/bin/gnu/h-i686-mingw32/bin/../lib/gcc/nios2-elf/4.1.2/../../../../nios2-elf/lib\libc.a(lib_a-locale.o)
 .debug_aranges
                0x000004c0       0x20 c:/altera/13.0/nios2eds/bin/gnu/h-i686-mingw32/bin/../lib/gcc/nios2-elf/4.1.2/../../../../nios2-elf/lib\libc.a(lib_a-makebuf.o)
 .debug_aranges
                0x000004e0       0x20 c:/altera/13.0/nios2eds/bin/gnu/h-i686-mingw32/bin/../lib/gcc/nios2-elf/4.1.2/../../../../nios2-elf/lib\libc.a(lib_a-mallocr.o)
 .debug_aranges
                0x00000500       0x20 c:/altera/13.0/nios2eds/bin/gnu/h-i686-mingw32/bin/../lib/gcc/nios2-elf/4.1.2/../../../../nios2-elf/lib\libc.a(lib_a-memchr.o)
 .debug_aranges
                0x00000520       0x20 c:/altera/13.0/nios2eds/bin/gnu/h-i686-mingw32/bin/../lib/gcc/nios2-elf/4.1.2/../../../../nios2-elf/lib\libc.a(lib_a-memmove.o)
 .debug_aranges
                0x00000540       0x20 c:/altera/13.0/nios2eds/bin/gnu/h-i686-mingw32/bin/../lib/gcc/nios2-elf/4.1.2/../../../../nios2-elf/lib\libc.a(lib_a-mprec.o)
 .debug_aranges
                0x00000560       0x20 c:/altera/13.0/nios2eds/bin/gnu/h-i686-mingw32/bin/../lib/gcc/nios2-elf/4.1.2/../../../../nios2-elf/lib\libc.a(lib_a-reallocr.o)
 .debug_aranges
                0x00000580       0x20 c:/altera/13.0/nios2eds/bin/gnu/h-i686-mingw32/bin/../lib/gcc/nios2-elf/4.1.2/../../../../nios2-elf/lib\libc.a(lib_a-s_isinfd.o)
 .debug_aranges
                0x000005a0       0x20 c:/altera/13.0/nios2eds/bin/gnu/h-i686-mingw32/bin/../lib/gcc/nios2-elf/4.1.2/../../../../nios2-elf/lib\libc.a(lib_a-s_isnand.o)
 .debug_aranges
                0x000005c0       0x20 c:/altera/13.0/nios2eds/bin/gnu/h-i686-mingw32/bin/../lib/gcc/nios2-elf/4.1.2/../../../../nios2-elf/lib\libc.a(lib_a-sbrkr.o)
 .debug_aranges
                0x000005e0       0x20 c:/altera/13.0/nios2eds/bin/gnu/h-i686-mingw32/bin/../lib/gcc/nios2-elf/4.1.2/../../../../nios2-elf/lib\libc.a(lib_a-stdio.o)
 .debug_aranges
                0x00000600       0x20 c:/altera/13.0/nios2eds/bin/gnu/h-i686-mingw32/bin/../lib/gcc/nios2-elf/4.1.2/../../../../nios2-elf/lib\libc.a(lib_a-strcmp.o)
 .debug_aranges
                0x00000620       0x20 c:/altera/13.0/nios2eds/bin/gnu/h-i686-mingw32/bin/../lib/gcc/nios2-elf/4.1.2/../../../../nios2-elf/lib\libc.a(lib_a-writer.o)
 .debug_aranges
                0x00000640       0x20 c:/altera/13.0/nios2eds/bin/gnu/h-i686-mingw32/bin/../lib/gcc/nios2-elf/4.1.2/../../../../nios2-elf/lib\libc.a(lib_a-callocr.o)
 .debug_aranges
                0x00000660       0x20 c:/altera/13.0/nios2eds/bin/gnu/h-i686-mingw32/bin/../lib/gcc/nios2-elf/4.1.2/../../../../nios2-elf/lib\libc.a(lib_a-closer.o)
 .debug_aranges
                0x00000680       0x20 c:/altera/13.0/nios2eds/bin/gnu/h-i686-mingw32/bin/../lib/gcc/nios2-elf/4.1.2/../../../../nios2-elf/lib\libc.a(lib_a-fclose.o)
 .debug_aranges
                0x000006a0       0x20 c:/altera/13.0/nios2eds/bin/gnu/h-i686-mingw32/bin/../lib/gcc/nios2-elf/4.1.2/../../../../nios2-elf/lib\libc.a(lib_a-fstatr.o)
 .debug_aranges
                0x000006c0       0x20 c:/altera/13.0/nios2eds/bin/gnu/h-i686-mingw32/bin/../lib/gcc/nios2-elf/4.1.2/../../../../nios2-elf/lib\libc.a(lib_a-isattyr.o)
 .debug_aranges
                0x000006e0       0x20 c:/altera/13.0/nios2eds/bin/gnu/h-i686-mingw32/bin/../lib/gcc/nios2-elf/4.1.2/../../../../nios2-elf/lib\libc.a(lib_a-lseekr.o)
 .debug_aranges
                0x00000700       0x20 c:/altera/13.0/nios2eds/bin/gnu/h-i686-mingw32/bin/../lib/gcc/nios2-elf/4.1.2/../../../../nios2-elf/lib\libc.a(lib_a-readr.o)
 .debug_aranges
                0x00000720       0x20 c:/altera/13.0/nios2eds/bin/gnu/h-i686-mingw32/bin/../lib/gcc/nios2-elf/4.1.2\libgcc.a(_udivdi3.o)
 .debug_aranges
                0x00000740       0x20 c:/altera/13.0/nios2eds/bin/gnu/h-i686-mingw32/bin/../lib/gcc/nios2-elf/4.1.2\libgcc.a(_umoddi3.o)
 .debug_aranges
                0x00000760       0x20 c:/altera/13.0/nios2eds/bin/gnu/h-i686-mingw32/bin/../lib/gcc/nios2-elf/4.1.2\libgcc.a(_ne_df.o)
 .debug_aranges
                0x00000780       0x20 c:/altera/13.0/nios2eds/bin/gnu/h-i686-mingw32/bin/../lib/gcc/nios2-elf/4.1.2\libgcc.a(_gt_df.o)
 .debug_aranges
                0x000007a0       0x20 c:/altera/13.0/nios2eds/bin/gnu/h-i686-mingw32/bin/../lib/gcc/nios2-elf/4.1.2\libgcc.a(_ge_df.o)
 .debug_aranges
                0x000007c0       0x20 c:/altera/13.0/nios2eds/bin/gnu/h-i686-mingw32/bin/../lib/gcc/nios2-elf/4.1.2\libgcc.a(_lt_df.o)
 .debug_aranges
                0x000007e0       0x20 c:/altera/13.0/nios2eds/bin/gnu/h-i686-mingw32/bin/../lib/gcc/nios2-elf/4.1.2\libgcc.a(_df_to_si.o)
 .debug_aranges
                0x00000800       0x20 c:/altera/13.0/nios2eds/bin/gnu/h-i686-mingw32/bin/../lib/gcc/nios2-elf/4.1.2\libgcc.a(lib2-divmod.o)
 .debug_aranges
                0x00000820       0x20 D:/cs723-assignment1/software/freertos_test_bsp/\libhal_bsp.a(alt_close.o)
 .debug_aranges
                0x00000840       0x20 D:/cs723-assignment1/software/freertos_test_bsp/\libhal_bsp.a(alt_dev.o)
 .debug_aranges
                0x00000860       0x20 D:/cs723-assignment1/software/freertos_test_bsp/\libhal_bsp.a(alt_fstat.o)
 .debug_aranges
                0x00000880       0x28 D:/cs723-assignment1/software/freertos_test_bsp/\libhal_bsp.a(alt_irq_handler.o)
 .debug_aranges
                0x000008a8       0x20 D:/cs723-assignment1/software/freertos_test_bsp/\libhal_bsp.a(alt_isatty.o)
 .debug_aranges
                0x000008c8       0x20 D:/cs723-assignment1/software/freertos_test_bsp/\libhal_bsp.a(alt_lseek.o)
 .debug_aranges
                0x000008e8       0x20 D:/cs723-assignment1/software/freertos_test_bsp/\libhal_bsp.a(alt_main.o)
 .debug_aranges
                0x00000908       0x20 D:/cs723-assignment1/software/freertos_test_bsp/\libhal_bsp.a(alt_malloc_lock.o)
 .debug_aranges
                0x00000928       0x20 D:/cs723-assignment1/software/freertos_test_bsp/\libhal_bsp.a(alt_read.o)
 .debug_aranges
                0x00000948       0x20 D:/cs723-assignment1/software/freertos_test_bsp/\libhal_bsp.a(alt_release_fd.o)
 .debug_aranges
                0x00000968       0x20 D:/cs723-assignment1/software/freertos_test_bsp/\libhal_bsp.a(alt_sbrk.o)
 .debug_aranges
                0x00000988       0x20 D:/cs723-assignment1/software/freertos_test_bsp/\libhal_bsp.a(alt_write.o)
 .debug_aranges
                0x000009a8       0x20 D:/cs723-assignment1/software/freertos_test_bsp/\libhal_bsp.a(alt_sys_init.o)
 .debug_aranges
                0x000009c8       0x20 D:/cs723-assignment1/software/freertos_test_bsp/\libhal_bsp.a(altera_avalon_cfi_flash.o)
 .debug_aranges
                0x000009e8       0x20 D:/cs723-assignment1/software/freertos_test_bsp/\libhal_bsp.a(altera_avalon_cfi_flash_table.o)
 .debug_aranges
                0x00000a08       0x20 D:/cs723-assignment1/software/freertos_test_bsp/\libhal_bsp.a(altera_avalon_jtag_uart_fd.o)
 .debug_aranges
                0x00000a28       0x20 D:/cs723-assignment1/software/freertos_test_bsp/\libhal_bsp.a(altera_avalon_jtag_uart_init.o)
 .debug_aranges
                0x00000a48       0x20 D:/cs723-assignment1/software/freertos_test_bsp/\libhal_bsp.a(altera_avalon_jtag_uart_ioctl.o)
 .debug_aranges
                0x00000a68       0x20 D:/cs723-assignment1/software/freertos_test_bsp/\libhal_bsp.a(altera_avalon_jtag_uart_read.o)
 .debug_aranges
                0x00000a88       0x20 D:/cs723-assignment1/software/freertos_test_bsp/\libhal_bsp.a(altera_avalon_jtag_uart_write.o)
 .debug_aranges
                0x00000aa8       0x20 D:/cs723-assignment1/software/freertos_test_bsp/\libhal_bsp.a(altera_avalon_lcd_16207.o)
 .debug_aranges
                0x00000ac8       0x20 D:/cs723-assignment1/software/freertos_test_bsp/\libhal_bsp.a(altera_avalon_lcd_16207_fd.o)
 .debug_aranges
                0x00000ae8       0x20 D:/cs723-assignment1/software/freertos_test_bsp/\libhal_bsp.a(altera_avalon_timer_sc.o)
 .debug_aranges
                0x00000b08       0x20 D:/cs723-assignment1/software/freertos_test_bsp/\libhal_bsp.a(altera_avalon_uart_fd.o)
 .debug_aranges
                0x00000b28       0x20 D:/cs723-assignment1/software/freertos_test_bsp/\libhal_bsp.a(altera_avalon_uart_init.o)
 .debug_aranges
                0x00000b48       0x20 D:/cs723-assignment1/software/freertos_test_bsp/\libhal_bsp.a(altera_avalon_uart_read.o)
 .debug_aranges
                0x00000b68       0x20 D:/cs723-assignment1/software/freertos_test_bsp/\libhal_bsp.a(altera_avalon_uart_write.o)
 .debug_aranges
                0x00000b88       0x20 D:/cs723-assignment1/software/freertos_test_bsp/\libhal_bsp.a(altera_up_avalon_ps2.o)
 .debug_aranges
                0x00000ba8       0x20 D:/cs723-assignment1/software/freertos_test_bsp/\libhal_bsp.a(altera_up_avalon_video_character_buffer_with_dma.o)
 .debug_aranges
                0x00000bc8       0x20 D:/cs723-assignment1/software/freertos_test_bsp/\libhal_bsp.a(altera_up_avalon_video_pixel_buffer_dma.o)
 .debug_aranges
                0x00000be8       0x20 D:/cs723-assignment1/software/freertos_test_bsp/\libhal_bsp.a(alt_alarm_start.o)
 .debug_aranges
                0x00000c08       0x20 D:/cs723-assignment1/software/freertos_test_bsp/\libhal_bsp.a(alt_dcache_flush.o)
 .debug_aranges
                0x00000c28       0x20 D:/cs723-assignment1/software/freertos_test_bsp/\libhal_bsp.a(alt_dev_llist_insert.o)
 .debug_aranges
                0x00000c48       0x20 D:/cs723-assignment1/software/freertos_test_bsp/\libhal_bsp.a(alt_do_ctors.o)
 .debug_aranges
                0x00000c68       0x20 D:/cs723-assignment1/software/freertos_test_bsp/\libhal_bsp.a(alt_do_dtors.o)
 .debug_aranges
                0x00000c88       0x20 D:/cs723-assignment1/software/freertos_test_bsp/\libhal_bsp.a(alt_find_dev.o)
 .debug_aranges
                0x00000ca8       0x20 D:/cs723-assignment1/software/freertos_test_bsp/\libhal_bsp.a(alt_flash_dev.o)
 .debug_aranges
                0x00000cc8       0x20 D:/cs723-assignment1/software/freertos_test_bsp/\libhal_bsp.a(alt_io_redirect.o)
 .debug_aranges
                0x00000ce8       0x20 D:/cs723-assignment1/software/freertos_test_bsp/\libhal_bsp.a(alt_open.o)
 .debug_aranges
                0x00000d08       0x20 D:/cs723-assignment1/software/freertos_test_bsp/\libhal_bsp.a(alt_tick.o)
 .debug_aranges
                0x00000d28       0x20 D:/cs723-assignment1/software/freertos_test_bsp/\libhal_bsp.a(alt_usleep.o)
 .debug_aranges
                0x00000d48       0x20 D:/cs723-assignment1/software/freertos_test_bsp/\libhal_bsp.a(altera_nios2_qsys_irq.o)
 .debug_aranges
                0x00000d68       0x20 D:/cs723-assignment1/software/freertos_test_bsp/\libhal_bsp.a(altera_avalon_cfi_flash_amd.o)
 .debug_aranges
                0x00000d88       0x20 D:/cs723-assignment1/software/freertos_test_bsp/\libhal_bsp.a(altera_avalon_cfi_flash_intel.o)
 .debug_aranges
                0x00000da8       0x20 D:/cs723-assignment1/software/freertos_test_bsp/\libhal_bsp.a(alt_busy_sleep.o)
 .debug_aranges
                0x00000dc8       0x20 D:/cs723-assignment1/software/freertos_test_bsp/\libhal_bsp.a(alt_find_file.o)
 .debug_aranges
                0x00000de8       0x20 D:/cs723-assignment1/software/freertos_test_bsp/\libhal_bsp.a(alt_get_fd.o)
 .debug_aranges
                0x00000e08       0x20 c:/altera/13.0/nios2eds/bin/gnu/h-i686-mingw32/bin/../lib/gcc/nios2-elf/4.1.2/../../../../nios2-elf/lib\libc.a(lib_a-atexit.o)
 .debug_aranges
                0x00000e28       0x20 c:/altera/13.0/nios2eds/bin/gnu/h-i686-mingw32/bin/../lib/gcc/nios2-elf/4.1.2/../../../../nios2-elf/lib\libc.a(lib_a-exit.o)
 .debug_aranges
                0x00000e48       0x20 c:/altera/13.0/nios2eds/bin/gnu/h-i686-mingw32/bin/../lib/gcc/nios2-elf/4.1.2/../../../../nios2-elf/lib\libc.a(lib_a-__atexit.o)
 .debug_aranges
                0x00000e68       0x20 c:/altera/13.0/nios2eds/bin/gnu/h-i686-mingw32/bin/../lib/gcc/nios2-elf/4.1.2/../../../../nios2-elf/lib\libc.a(lib_a-__call_atexit.o)
 .debug_aranges
                0x00000e88       0x20 D:/cs723-assignment1/software/freertos_test_bsp/\libhal_bsp.a(alt_exit.o)

.debug_pubnames
                0x00000000     0x2649
 *(.debug_pubnames)
 .debug_pubnames
                0x00000000       0x96 obj/default//D/cs723-assignment1/software/freertos_test/freertos/croutine.o
 .debug_pubnames
                0x00000096       0xf8 obj/default//D/cs723-assignment1/software/freertos_test/freertos/event_groups.o
 .debug_pubnames
                0x0000018e       0x64 obj/default//D/cs723-assignment1/software/freertos_test/freertos/heap.o
 .debug_pubnames
                0x000001f2       0x72 obj/default//D/cs723-assignment1/software/freertos_test/freertos/list.o
 .debug_pubnames
                0x00000264       0xa9 obj/default//D/cs723-assignment1/software/freertos_test/freertos/port.o
 .debug_pubnames
                0x0000030d      0x20b obj/default//D/cs723-assignment1/software/freertos_test/freertos/queue.o
 .debug_pubnames
                0x00000518      0x37b obj/default//D/cs723-assignment1/software/freertos_test/freertos/tasks.o
 .debug_pubnames
                0x00000893       0x9c obj/default//D/cs723-assignment1/software/freertos_test/freertos/timers.o
 .debug_pubnames
                0x0000092f       0x82 obj/default//D/cs723-assignment1/software/freertos_test/freertos_test.o
 .debug_pubnames
                0x000009b1       0x2c c:/altera/13.0/nios2eds/bin/gnu/h-i686-mingw32/bin/../lib/gcc/nios2-elf/4.1.2\libgcc.a(_addsub_df.o)
 .debug_pubnames
                0x000009dd       0x1f c:/altera/13.0/nios2eds/bin/gnu/h-i686-mingw32/bin/../lib/gcc/nios2-elf/4.1.2\libgcc.a(_mul_df.o)
 .debug_pubnames
                0x000009fc       0x1f c:/altera/13.0/nios2eds/bin/gnu/h-i686-mingw32/bin/../lib/gcc/nios2-elf/4.1.2\libgcc.a(_div_df.o)
 .debug_pubnames
                0x00000a1b       0x1e c:/altera/13.0/nios2eds/bin/gnu/h-i686-mingw32/bin/../lib/gcc/nios2-elf/4.1.2\libgcc.a(_eq_df.o)
 .debug_pubnames
                0x00000a39       0x22 c:/altera/13.0/nios2eds/bin/gnu/h-i686-mingw32/bin/../lib/gcc/nios2-elf/4.1.2\libgcc.a(_si_to_df.o)
 .debug_pubnames
                0x00000a5b       0x22 c:/altera/13.0/nios2eds/bin/gnu/h-i686-mingw32/bin/../lib/gcc/nios2-elf/4.1.2\libgcc.a(_thenan_df.o)
 .debug_pubnames
                0x00000a7d       0x24 c:/altera/13.0/nios2eds/bin/gnu/h-i686-mingw32/bin/../lib/gcc/nios2-elf/4.1.2\libgcc.a(_usi_to_df.o)
 .debug_pubnames
                0x00000aa1       0x1f c:/altera/13.0/nios2eds/bin/gnu/h-i686-mingw32/bin/../lib/gcc/nios2-elf/4.1.2\libgcc.a(_muldi3.o)
 .debug_pubnames
                0x00000ac0       0x1f c:/altera/13.0/nios2eds/bin/gnu/h-i686-mingw32/bin/../lib/gcc/nios2-elf/4.1.2\libgcc.a(_clzsi2.o)
 .debug_pubnames
                0x00000adf       0x1f c:/altera/13.0/nios2eds/bin/gnu/h-i686-mingw32/bin/../lib/gcc/nios2-elf/4.1.2\libgcc.a(_pack_df.o)
 .debug_pubnames
                0x00000afe       0x21 c:/altera/13.0/nios2eds/bin/gnu/h-i686-mingw32/bin/../lib/gcc/nios2-elf/4.1.2\libgcc.a(_unpack_df.o)
 .debug_pubnames
                0x00000b1f       0x26 c:/altera/13.0/nios2eds/bin/gnu/h-i686-mingw32/bin/../lib/gcc/nios2-elf/4.1.2\libgcc.a(_fpcmp_parts_df.o)
 .debug_pubnames
                0x00000b45       0x20 c:/altera/13.0/nios2eds/bin/gnu/h-i686-mingw32/bin/../lib/gcc/nios2-elf/4.1.2\libgcc.a(_clz.o)
 .debug_pubnames
                0x00000b65       0x1d c:/altera/13.0/nios2eds/bin/gnu/h-i686-mingw32/bin/../lib/gcc/nios2-elf/4.1.2/../../../../nios2-elf/lib\libc.a(lib_a-memcmp.o)
 .debug_pubnames
                0x00000b82       0x1d c:/altera/13.0/nios2eds/bin/gnu/h-i686-mingw32/bin/../lib/gcc/nios2-elf/4.1.2/../../../../nios2-elf/lib\libc.a(lib_a-memcpy.o)
 .debug_pubnames
                0x00000b9f       0x1d c:/altera/13.0/nios2eds/bin/gnu/h-i686-mingw32/bin/../lib/gcc/nios2-elf/4.1.2/../../../../nios2-elf/lib\libc.a(lib_a-memset.o)
 .debug_pubnames
                0x00000bbc       0x2b c:/altera/13.0/nios2eds/bin/gnu/h-i686-mingw32/bin/../lib/gcc/nios2-elf/4.1.2/../../../../nios2-elf/lib\libc.a(lib_a-printf.o)
 .debug_pubnames
                0x00000be7       0x27 c:/altera/13.0/nios2eds/bin/gnu/h-i686-mingw32/bin/../lib/gcc/nios2-elf/4.1.2/../../../../nios2-elf/lib\libc.a(lib_a-puts.o)
 .debug_pubnames
                0x00000c0e       0x1d c:/altera/13.0/nios2eds/bin/gnu/h-i686-mingw32/bin/../lib/gcc/nios2-elf/4.1.2/../../../../nios2-elf/lib\libc.a(lib_a-strlen.o)
 .debug_pubnames
                0x00000c2b       0x45 c:/altera/13.0/nios2eds/bin/gnu/h-i686-mingw32/bin/../lib/gcc/nios2-elf/4.1.2/../../../../nios2-elf/lib\libc.a(lib_a-vfprintf.o)
 .debug_pubnames
                0x00000c70       0x22 c:/altera/13.0/nios2eds/bin/gnu/h-i686-mingw32/bin/../lib/gcc/nios2-elf/4.1.2/../../../../nios2-elf/lib\libc.a(lib_a-wsetup.o)
 .debug_pubnames
                0x00000c92       0x1e c:/altera/13.0/nios2eds/bin/gnu/h-i686-mingw32/bin/../lib/gcc/nios2-elf/4.1.2/../../../../nios2-elf/lib\libc.a(lib_a-dtoa.o)
 .debug_pubnames
                0x00000cb0       0x2b c:/altera/13.0/nios2eds/bin/gnu/h-i686-mingw32/bin/../lib/gcc/nios2-elf/4.1.2/../../../../nios2-elf/lib\libc.a(lib_a-fflush.o)
 .debug_pubnames
                0x00000cdb       0xdb c:/altera/13.0/nios2eds/bin/gnu/h-i686-mingw32/bin/../lib/gcc/nios2-elf/4.1.2/../../../../nios2-elf/lib\libc.a(lib_a-findfp.o)
 .debug_pubnames
                0x00000db6       0x31 c:/altera/13.0/nios2eds/bin/gnu/h-i686-mingw32/bin/../lib/gcc/nios2-elf/4.1.2/../../../../nios2-elf/lib\libc.a(lib_a-freer.o)
 .debug_pubnames
                0x00000de7       0x23 c:/altera/13.0/nios2eds/bin/gnu/h-i686-mingw32/bin/../lib/gcc/nios2-elf/4.1.2/../../../../nios2-elf/lib\libc.a(lib_a-fvwrite.o)
 .debug_pubnames
                0x00000e0a       0x2e c:/altera/13.0/nios2eds/bin/gnu/h-i686-mingw32/bin/../lib/gcc/nios2-elf/4.1.2/../../../../nios2-elf/lib\libc.a(lib_a-fwalk.o)
 .debug_pubnames
                0x00000e38       0x39 c:/altera/13.0/nios2eds/bin/gnu/h-i686-mingw32/bin/../lib/gcc/nios2-elf/4.1.2/../../../../nios2-elf/lib\libc.a(lib_a-impure.o)
 .debug_pubnames
                0x00000e71       0xc3 c:/altera/13.0/nios2eds/bin/gnu/h-i686-mingw32/bin/../lib/gcc/nios2-elf/4.1.2/../../../../nios2-elf/lib\libc.a(lib_a-locale.o)
 .debug_pubnames
                0x00000f34       0x23 c:/altera/13.0/nios2eds/bin/gnu/h-i686-mingw32/bin/../lib/gcc/nios2-elf/4.1.2/../../../../nios2-elf/lib\libc.a(lib_a-makebuf.o)
 .debug_pubnames
                0x00000f57       0xce c:/altera/13.0/nios2eds/bin/gnu/h-i686-mingw32/bin/../lib/gcc/nios2-elf/4.1.2/../../../../nios2-elf/lib\libc.a(lib_a-mallocr.o)
 .debug_pubnames
                0x00001025       0x1d c:/altera/13.0/nios2eds/bin/gnu/h-i686-mingw32/bin/../lib/gcc/nios2-elf/4.1.2/../../../../nios2-elf/lib\libc.a(lib_a-memchr.o)
 .debug_pubnames
                0x00001042       0x1e c:/altera/13.0/nios2eds/bin/gnu/h-i686-mingw32/bin/../lib/gcc/nios2-elf/4.1.2/../../../../nios2-elf/lib\libc.a(lib_a-memmove.o)
 .debug_pubnames
                0x00001060      0x13a c:/altera/13.0/nios2eds/bin/gnu/h-i686-mingw32/bin/../lib/gcc/nios2-elf/4.1.2/../../../../nios2-elf/lib\libc.a(lib_a-mprec.o)
 .debug_pubnames
                0x0000119a       0x21 c:/altera/13.0/nios2eds/bin/gnu/h-i686-mingw32/bin/../lib/gcc/nios2-elf/4.1.2/../../../../nios2-elf/lib\libc.a(lib_a-reallocr.o)
 .debug_pubnames
                0x000011bb       0x1f c:/altera/13.0/nios2eds/bin/gnu/h-i686-mingw32/bin/../lib/gcc/nios2-elf/4.1.2/../../../../nios2-elf/lib\libc.a(lib_a-s_isinfd.o)
 .debug_pubnames
                0x000011da       0x1f c:/altera/13.0/nios2eds/bin/gnu/h-i686-mingw32/bin/../lib/gcc/nios2-elf/4.1.2/../../../../nios2-elf/lib\libc.a(lib_a-s_isnand.o)
 .debug_pubnames
                0x000011f9       0x1e c:/altera/13.0/nios2eds/bin/gnu/h-i686-mingw32/bin/../lib/gcc/nios2-elf/4.1.2/../../../../nios2-elf/lib\libc.a(lib_a-sbrkr.o)
 .debug_pubnames
                0x00001217       0x44 c:/altera/13.0/nios2eds/bin/gnu/h-i686-mingw32/bin/../lib/gcc/nios2-elf/4.1.2/../../../../nios2-elf/lib\libc.a(lib_a-stdio.o)
 .debug_pubnames
                0x0000125b       0x1d c:/altera/13.0/nios2eds/bin/gnu/h-i686-mingw32/bin/../lib/gcc/nios2-elf/4.1.2/../../../../nios2-elf/lib\libc.a(lib_a-strcmp.o)
 .debug_pubnames
                0x00001278       0x1f c:/altera/13.0/nios2eds/bin/gnu/h-i686-mingw32/bin/../lib/gcc/nios2-elf/4.1.2/../../../../nios2-elf/lib\libc.a(lib_a-writer.o)
 .debug_pubnames
                0x00001297       0x20 c:/altera/13.0/nios2eds/bin/gnu/h-i686-mingw32/bin/../lib/gcc/nios2-elf/4.1.2/../../../../nios2-elf/lib\libc.a(lib_a-callocr.o)
 .debug_pubnames
                0x000012b7       0x1f c:/altera/13.0/nios2eds/bin/gnu/h-i686-mingw32/bin/../lib/gcc/nios2-elf/4.1.2/../../../../nios2-elf/lib\libc.a(lib_a-closer.o)
 .debug_pubnames
                0x000012d6       0x2b c:/altera/13.0/nios2eds/bin/gnu/h-i686-mingw32/bin/../lib/gcc/nios2-elf/4.1.2/../../../../nios2-elf/lib\libc.a(lib_a-fclose.o)
 .debug_pubnames
                0x00001301       0x1f c:/altera/13.0/nios2eds/bin/gnu/h-i686-mingw32/bin/../lib/gcc/nios2-elf/4.1.2/../../../../nios2-elf/lib\libc.a(lib_a-fstatr.o)
 .debug_pubnames
                0x00001320       0x1c c:/altera/13.0/nios2eds/bin/gnu/h-i686-mingw32/bin/../lib/gcc/nios2-elf/4.1.2/../../../../nios2-elf/lib\libc.a(lib_a-int_errno.o)
 .debug_pubnames
                0x0000133c       0x20 c:/altera/13.0/nios2eds/bin/gnu/h-i686-mingw32/bin/../lib/gcc/nios2-elf/4.1.2/../../../../nios2-elf/lib\libc.a(lib_a-isattyr.o)
 .debug_pubnames
                0x0000135c       0x1f c:/altera/13.0/nios2eds/bin/gnu/h-i686-mingw32/bin/../lib/gcc/nios2-elf/4.1.2/../../../../nios2-elf/lib\libc.a(lib_a-lseekr.o)
 .debug_pubnames
                0x0000137b       0x1e c:/altera/13.0/nios2eds/bin/gnu/h-i686-mingw32/bin/../lib/gcc/nios2-elf/4.1.2/../../../../nios2-elf/lib\libc.a(lib_a-readr.o)
 .debug_pubnames
                0x00001399       0x20 c:/altera/13.0/nios2eds/bin/gnu/h-i686-mingw32/bin/../lib/gcc/nios2-elf/4.1.2\libgcc.a(_udivdi3.o)
 .debug_pubnames
                0x000013b9       0x20 c:/altera/13.0/nios2eds/bin/gnu/h-i686-mingw32/bin/../lib/gcc/nios2-elf/4.1.2\libgcc.a(_umoddi3.o)
 .debug_pubnames
                0x000013d9       0x1e c:/altera/13.0/nios2eds/bin/gnu/h-i686-mingw32/bin/../lib/gcc/nios2-elf/4.1.2\libgcc.a(_ne_df.o)
 .debug_pubnames
                0x000013f7       0x1e c:/altera/13.0/nios2eds/bin/gnu/h-i686-mingw32/bin/../lib/gcc/nios2-elf/4.1.2\libgcc.a(_gt_df.o)
 .debug_pubnames
                0x00001415       0x1e c:/altera/13.0/nios2eds/bin/gnu/h-i686-mingw32/bin/../lib/gcc/nios2-elf/4.1.2\libgcc.a(_ge_df.o)
 .debug_pubnames
                0x00001433       0x1e c:/altera/13.0/nios2eds/bin/gnu/h-i686-mingw32/bin/../lib/gcc/nios2-elf/4.1.2\libgcc.a(_lt_df.o)
 .debug_pubnames
                0x00001451       0x20 c:/altera/13.0/nios2eds/bin/gnu/h-i686-mingw32/bin/../lib/gcc/nios2-elf/4.1.2\libgcc.a(_df_to_si.o)
 .debug_pubnames
                0x00001471       0x48 c:/altera/13.0/nios2eds/bin/gnu/h-i686-mingw32/bin/../lib/gcc/nios2-elf/4.1.2\libgcc.a(lib2-divmod.o)
 .debug_pubnames
                0x000014b9       0x1c D:/cs723-assignment1/software/freertos_test_bsp/\libhal_bsp.a(alt_close.o)
 .debug_pubnames
                0x000014d5       0x63 D:/cs723-assignment1/software/freertos_test_bsp/\libhal_bsp.a(alt_dev.o)
 .debug_pubnames
                0x00001538       0x20 D:/cs723-assignment1/software/freertos_test_bsp/\libhal_bsp.a(alt_errno.o)
 .debug_pubnames
                0x00001558       0x1c D:/cs723-assignment1/software/freertos_test_bsp/\libhal_bsp.a(alt_fstat.o)
 .debug_pubnames
                0x00001574       0x32 D:/cs723-assignment1/software/freertos_test_bsp/\libhal_bsp.a(alt_irq_handler.o)
 .debug_pubnames
                0x000015a6       0x3b D:/cs723-assignment1/software/freertos_test_bsp/\libhal_bsp.a(alt_irq_vars.o)
 .debug_pubnames
                0x000015e1       0x1d D:/cs723-assignment1/software/freertos_test_bsp/\libhal_bsp.a(alt_isatty.o)
 .debug_pubnames
                0x000015fe       0x1c D:/cs723-assignment1/software/freertos_test_bsp/\libhal_bsp.a(alt_lseek.o)
 .debug_pubnames
                0x0000161a       0x46 D:/cs723-assignment1/software/freertos_test_bsp/\libhal_bsp.a(alt_main.o)
 .debug_pubnames
                0x00001660       0x38 D:/cs723-assignment1/software/freertos_test_bsp/\libhal_bsp.a(alt_malloc_lock.o)
 .debug_pubnames
                0x00001698       0x1b D:/cs723-assignment1/software/freertos_test_bsp/\libhal_bsp.a(alt_read.o)
 .debug_pubnames
                0x000016b3       0x25 D:/cs723-assignment1/software/freertos_test_bsp/\libhal_bsp.a(alt_release_fd.o)
 .debug_pubnames
                0x000016d8       0x1b D:/cs723-assignment1/software/freertos_test_bsp/\libhal_bsp.a(alt_sbrk.o)
 .debug_pubnames
                0x000016f3       0x1c D:/cs723-assignment1/software/freertos_test_bsp/\libhal_bsp.a(alt_write.o)
 .debug_pubnames
                0x0000170f       0x34 D:/cs723-assignment1/software/freertos_test_bsp/\libhal_bsp.a(alt_sys_init.o)
 .debug_pubnames
                0x00001743       0xac D:/cs723-assignment1/software/freertos_test_bsp/\libhal_bsp.a(altera_avalon_cfi_flash.o)
 .debug_pubnames
                0x000017ef      0x27a D:/cs723-assignment1/software/freertos_test_bsp/\libhal_bsp.a(altera_avalon_cfi_flash_table.o)
 .debug_pubnames
                0x00001a69       0xa5 D:/cs723-assignment1/software/freertos_test_bsp/\libhal_bsp.a(altera_avalon_jtag_uart_fd.o)
 .debug_pubnames
                0x00001b0e       0x55 D:/cs723-assignment1/software/freertos_test_bsp/\libhal_bsp.a(altera_avalon_jtag_uart_init.o)
 .debug_pubnames
                0x00001b63       0x34 D:/cs723-assignment1/software/freertos_test_bsp/\libhal_bsp.a(altera_avalon_jtag_uart_ioctl.o)
 .debug_pubnames
                0x00001b97       0x33 D:/cs723-assignment1/software/freertos_test_bsp/\libhal_bsp.a(altera_avalon_jtag_uart_read.o)
 .debug_pubnames
                0x00001bca       0x34 D:/cs723-assignment1/software/freertos_test_bsp/\libhal_bsp.a(altera_avalon_jtag_uart_write.o)
 .debug_pubnames
                0x00001bfe       0x55 D:/cs723-assignment1/software/freertos_test_bsp/\libhal_bsp.a(altera_avalon_lcd_16207.o)
 .debug_pubnames
                0x00001c53       0x37 D:/cs723-assignment1/software/freertos_test_bsp/\libhal_bsp.a(altera_avalon_lcd_16207_fd.o)
 .debug_pubnames
                0x00001c8a       0x2f D:/cs723-assignment1/software/freertos_test_bsp/\libhal_bsp.a(altera_avalon_timer_sc.o)
 .debug_pubnames
                0x00001cb9       0x71 D:/cs723-assignment1/software/freertos_test_bsp/\libhal_bsp.a(altera_avalon_uart_fd.o)
 .debug_pubnames
                0x00001d2a       0x4b D:/cs723-assignment1/software/freertos_test_bsp/\libhal_bsp.a(altera_avalon_uart_init.o)
 .debug_pubnames
                0x00001d75       0x2e D:/cs723-assignment1/software/freertos_test_bsp/\libhal_bsp.a(altera_avalon_uart_read.o)
 .debug_pubnames
                0x00001da3       0x2f D:/cs723-assignment1/software/freertos_test_bsp/\libhal_bsp.a(altera_avalon_uart_write.o)
 .debug_pubnames
                0x00001dd2      0x1ed D:/cs723-assignment1/software/freertos_test_bsp/\libhal_bsp.a(altera_up_avalon_ps2.o)
 .debug_pubnames
                0x00001fbf       0xa5 D:/cs723-assignment1/software/freertos_test_bsp/\libhal_bsp.a(altera_up_avalon_video_character_buffer_with_dma.o)
 .debug_pubnames
                0x00002064      0x1f1 D:/cs723-assignment1/software/freertos_test_bsp/\libhal_bsp.a(altera_up_avalon_video_pixel_buffer_dma.o)
 .debug_pubnames
                0x00002255       0x26 D:/cs723-assignment1/software/freertos_test_bsp/\libhal_bsp.a(alt_alarm_start.o)
 .debug_pubnames
                0x0000227b       0x27 D:/cs723-assignment1/software/freertos_test_bsp/\libhal_bsp.a(alt_dcache_flush.o)
 .debug_pubnames
                0x000022a2       0x2b D:/cs723-assignment1/software/freertos_test_bsp/\libhal_bsp.a(alt_dev_llist_insert.o)
 .debug_pubnames
                0x000022cd       0x20 D:/cs723-assignment1/software/freertos_test_bsp/\libhal_bsp.a(alt_do_ctors.o)
 .debug_pubnames
                0x000022ed       0x20 D:/cs723-assignment1/software/freertos_test_bsp/\libhal_bsp.a(alt_do_dtors.o)
 .debug_pubnames
                0x0000230d       0x23 D:/cs723-assignment1/software/freertos_test_bsp/\libhal_bsp.a(alt_find_dev.o)
 .debug_pubnames
                0x00002330       0x58 D:/cs723-assignment1/software/freertos_test_bsp/\libhal_bsp.a(alt_flash_dev.o)
 .debug_pubnames
                0x00002388       0x26 D:/cs723-assignment1/software/freertos_test_bsp/\libhal_bsp.a(alt_io_redirect.o)
 .debug_pubnames
                0x000023ae       0x1b D:/cs723-assignment1/software/freertos_test_bsp/\libhal_bsp.a(alt_open.o)
 .debug_pubnames
                0x000023c9       0x68 D:/cs723-assignment1/software/freertos_test_bsp/\libhal_bsp.a(alt_tick.o)
 .debug_pubnames
                0x00002431       0x1d D:/cs723-assignment1/software/freertos_test_bsp/\libhal_bsp.a(alt_usleep.o)
 .debug_pubnames
                0x0000244e       0x31 D:/cs723-assignment1/software/freertos_test_bsp/\libhal_bsp.a(altera_nios2_qsys_irq.o)
 .debug_pubnames
                0x0000247f       0x3e D:/cs723-assignment1/software/freertos_test_bsp/\libhal_bsp.a(altera_avalon_cfi_flash_amd.o)
 .debug_pubnames
                0x000024bd       0x42 D:/cs723-assignment1/software/freertos_test_bsp/\libhal_bsp.a(altera_avalon_cfi_flash_intel.o)
 .debug_pubnames
                0x000024ff       0x25 D:/cs723-assignment1/software/freertos_test_bsp/\libhal_bsp.a(alt_busy_sleep.o)
 .debug_pubnames
                0x00002524       0x24 D:/cs723-assignment1/software/freertos_test_bsp/\libhal_bsp.a(alt_find_file.o)
 .debug_pubnames
                0x00002548       0x21 D:/cs723-assignment1/software/freertos_test_bsp/\libhal_bsp.a(alt_get_fd.o)
 .debug_pubnames
                0x00002569       0x2a c:/altera/13.0/nios2eds/bin/gnu/h-i686-mingw32/bin/../lib/gcc/nios2-elf/4.1.2/../../../../nios2-elf/lib\libc.a(lib_a-atexit.o)
 .debug_pubnames
                0x00002593       0x2e c:/altera/13.0/nios2eds/bin/gnu/h-i686-mingw32/bin/../lib/gcc/nios2-elf/4.1.2/../../../../nios2-elf/lib\libc.a(lib_a-ctype_.o)
 .debug_pubnames
                0x000025c1       0x1b c:/altera/13.0/nios2eds/bin/gnu/h-i686-mingw32/bin/../lib/gcc/nios2-elf/4.1.2/../../../../nios2-elf/lib\libc.a(lib_a-exit.o)
 .debug_pubnames
                0x000025dc       0x2a c:/altera/13.0/nios2eds/bin/gnu/h-i686-mingw32/bin/../lib/gcc/nios2-elf/4.1.2/../../../../nios2-elf/lib\libc.a(lib_a-__atexit.o)
 .debug_pubnames
                0x00002606       0x27 c:/altera/13.0/nios2eds/bin/gnu/h-i686-mingw32/bin/../lib/gcc/nios2-elf/4.1.2/../../../../nios2-elf/lib\libc.a(lib_a-__call_atexit.o)
 .debug_pubnames
                0x0000262d       0x1c D:/cs723-assignment1/software/freertos_test_bsp/\libhal_bsp.a(alt_exit.o)

.debug_info     0x00000000    0x2fe45
 *(.debug_info .gnu.linkonce.wi.*)
 .debug_info    0x00000000       0x65 D:/cs723-assignment1/software/freertos_test_bsp//obj/HAL/src/crt0.o
 .debug_info    0x00000065      0x90a obj/default//D/cs723-assignment1/software/freertos_test/freertos/croutine.o
 .debug_info    0x0000096f      0x8f5 obj/default//D/cs723-assignment1/software/freertos_test/freertos/event_groups.o
 .debug_info    0x00001264      0x4ac obj/default//D/cs723-assignment1/software/freertos_test/freertos/heap.o
 .debug_info    0x00001710      0x45a obj/default//D/cs723-assignment1/software/freertos_test/freertos/list.o
 .debug_info    0x00001b6a      0x64c obj/default//D/cs723-assignment1/software/freertos_test/freertos/port.o
 .debug_info    0x000021b6      0xf2c obj/default//D/cs723-assignment1/software/freertos_test/freertos/queue.o
 .debug_info    0x000030e2     0x19c9 obj/default//D/cs723-assignment1/software/freertos_test/freertos/tasks.o
 .debug_info    0x00004aab      0xbe3 obj/default//D/cs723-assignment1/software/freertos_test/freertos/timers.o
 .debug_info    0x0000568e      0x7db obj/default//D/cs723-assignment1/software/freertos_test/freertos_test.o
 .debug_info    0x00005e69       0x8e obj/default//D/cs723-assignment1/software/freertos_test/freertos/port_asm.o
 .debug_info    0x00005ef7      0x493 c:/altera/13.0/nios2eds/bin/gnu/h-i686-mingw32/bin/../lib/gcc/nios2-elf/4.1.2\libgcc.a(_addsub_df.o)
 .debug_info    0x0000638a      0x488 c:/altera/13.0/nios2eds/bin/gnu/h-i686-mingw32/bin/../lib/gcc/nios2-elf/4.1.2\libgcc.a(_mul_df.o)
 .debug_info    0x00006812      0x39b c:/altera/13.0/nios2eds/bin/gnu/h-i686-mingw32/bin/../lib/gcc/nios2-elf/4.1.2\libgcc.a(_div_df.o)
 .debug_info    0x00006bad      0x29d c:/altera/13.0/nios2eds/bin/gnu/h-i686-mingw32/bin/../lib/gcc/nios2-elf/4.1.2\libgcc.a(_eq_df.o)
 .debug_info    0x00006e4a      0x218 c:/altera/13.0/nios2eds/bin/gnu/h-i686-mingw32/bin/../lib/gcc/nios2-elf/4.1.2\libgcc.a(_si_to_df.o)
 .debug_info    0x00007062      0x164 c:/altera/13.0/nios2eds/bin/gnu/h-i686-mingw32/bin/../lib/gcc/nios2-elf/4.1.2\libgcc.a(_thenan_df.o)
 .debug_info    0x000071c6      0x213 c:/altera/13.0/nios2eds/bin/gnu/h-i686-mingw32/bin/../lib/gcc/nios2-elf/4.1.2\libgcc.a(_usi_to_df.o)
 .debug_info    0x000073d9      0x215 c:/altera/13.0/nios2eds/bin/gnu/h-i686-mingw32/bin/../lib/gcc/nios2-elf/4.1.2\libgcc.a(_muldi3.o)
 .debug_info    0x000075ee      0x130 c:/altera/13.0/nios2eds/bin/gnu/h-i686-mingw32/bin/../lib/gcc/nios2-elf/4.1.2\libgcc.a(_clzsi2.o)
 .debug_info    0x0000771e      0x2fc c:/altera/13.0/nios2eds/bin/gnu/h-i686-mingw32/bin/../lib/gcc/nios2-elf/4.1.2\libgcc.a(_pack_df.o)
 .debug_info    0x00007a1a      0x268 c:/altera/13.0/nios2eds/bin/gnu/h-i686-mingw32/bin/../lib/gcc/nios2-elf/4.1.2\libgcc.a(_unpack_df.o)
 .debug_info    0x00007c82      0x21b c:/altera/13.0/nios2eds/bin/gnu/h-i686-mingw32/bin/../lib/gcc/nios2-elf/4.1.2\libgcc.a(_fpcmp_parts_df.o)
 .debug_info    0x00007e9d       0xc9 c:/altera/13.0/nios2eds/bin/gnu/h-i686-mingw32/bin/../lib/gcc/nios2-elf/4.1.2\libgcc.a(_clz.o)
 .debug_info    0x00007f66      0x115 c:/altera/13.0/nios2eds/bin/gnu/h-i686-mingw32/bin/../lib/gcc/nios2-elf/4.1.2/../../../../nios2-elf/lib\libc.a(lib_a-memcmp.o)
 .debug_info    0x0000807b      0x106 c:/altera/13.0/nios2eds/bin/gnu/h-i686-mingw32/bin/../lib/gcc/nios2-elf/4.1.2/../../../../nios2-elf/lib\libc.a(lib_a-memcpy.o)
 .debug_info    0x00008181      0x113 c:/altera/13.0/nios2eds/bin/gnu/h-i686-mingw32/bin/../lib/gcc/nios2-elf/4.1.2/../../../../nios2-elf/lib\libc.a(lib_a-memset.o)
 .debug_info    0x00008294      0x9d1 c:/altera/13.0/nios2eds/bin/gnu/h-i686-mingw32/bin/../lib/gcc/nios2-elf/4.1.2/../../../../nios2-elf/lib\libc.a(lib_a-printf.o)
 .debug_info    0x00008c65      0xa25 c:/altera/13.0/nios2eds/bin/gnu/h-i686-mingw32/bin/../lib/gcc/nios2-elf/4.1.2/../../../../nios2-elf/lib\libc.a(lib_a-puts.o)
 .debug_info    0x0000968a       0xdb c:/altera/13.0/nios2eds/bin/gnu/h-i686-mingw32/bin/../lib/gcc/nios2-elf/4.1.2/../../../../nios2-elf/lib\libc.a(lib_a-strlen.o)
 .debug_info    0x00009765     0x10d5 c:/altera/13.0/nios2eds/bin/gnu/h-i686-mingw32/bin/../lib/gcc/nios2-elf/4.1.2/../../../../nios2-elf/lib\libc.a(lib_a-vfprintf.o)
 .debug_info    0x0000a83a      0x95d c:/altera/13.0/nios2eds/bin/gnu/h-i686-mingw32/bin/../lib/gcc/nios2-elf/4.1.2/../../../../nios2-elf/lib\libc.a(lib_a-wsetup.o)
 .debug_info    0x0000b197      0xd6f c:/altera/13.0/nios2eds/bin/gnu/h-i686-mingw32/bin/../lib/gcc/nios2-elf/4.1.2/../../../../nios2-elf/lib\libc.a(lib_a-dtoa.o)
 .debug_info    0x0000bf06      0x9fe c:/altera/13.0/nios2eds/bin/gnu/h-i686-mingw32/bin/../lib/gcc/nios2-elf/4.1.2/../../../../nios2-elf/lib\libc.a(lib_a-fflush.o)
 .debug_info    0x0000c904      0xb72 c:/altera/13.0/nios2eds/bin/gnu/h-i686-mingw32/bin/../lib/gcc/nios2-elf/4.1.2/../../../../nios2-elf/lib\libc.a(lib_a-findfp.o)
 .debug_info    0x0000d476      0xbc9 c:/altera/13.0/nios2eds/bin/gnu/h-i686-mingw32/bin/../lib/gcc/nios2-elf/4.1.2/../../../../nios2-elf/lib\libc.a(lib_a-freer.o)
 .debug_info    0x0000e03f      0xa88 c:/altera/13.0/nios2eds/bin/gnu/h-i686-mingw32/bin/../lib/gcc/nios2-elf/4.1.2/../../../../nios2-elf/lib\libc.a(lib_a-fvwrite.o)
 .debug_info    0x0000eac7      0xaed c:/altera/13.0/nios2eds/bin/gnu/h-i686-mingw32/bin/../lib/gcc/nios2-elf/4.1.2/../../../../nios2-elf/lib\libc.a(lib_a-fwalk.o)
 .debug_info    0x0000f5b4      0x93d c:/altera/13.0/nios2eds/bin/gnu/h-i686-mingw32/bin/../lib/gcc/nios2-elf/4.1.2/../../../../nios2-elf/lib\libc.a(lib_a-impure.o)
 .debug_info    0x0000fef1      0xb97 c:/altera/13.0/nios2eds/bin/gnu/h-i686-mingw32/bin/../lib/gcc/nios2-elf/4.1.2/../../../../nios2-elf/lib\libc.a(lib_a-locale.o)
 .debug_info    0x00010a88      0xb1a c:/altera/13.0/nios2eds/bin/gnu/h-i686-mingw32/bin/../lib/gcc/nios2-elf/4.1.2/../../../../nios2-elf/lib\libc.a(lib_a-makebuf.o)
 .debug_info    0x000115a2      0xcd0 c:/altera/13.0/nios2eds/bin/gnu/h-i686-mingw32/bin/../lib/gcc/nios2-elf/4.1.2/../../../../nios2-elf/lib\libc.a(lib_a-mallocr.o)
 .debug_info    0x00012272      0x138 c:/altera/13.0/nios2eds/bin/gnu/h-i686-mingw32/bin/../lib/gcc/nios2-elf/4.1.2/../../../../nios2-elf/lib\libc.a(lib_a-memchr.o)
 .debug_info    0x000123aa      0x13e c:/altera/13.0/nios2eds/bin/gnu/h-i686-mingw32/bin/../lib/gcc/nios2-elf/4.1.2/../../../../nios2-elf/lib\libc.a(lib_a-memmove.o)
 .debug_info    0x000124e8     0x1437 c:/altera/13.0/nios2eds/bin/gnu/h-i686-mingw32/bin/../lib/gcc/nios2-elf/4.1.2/../../../../nios2-elf/lib\libc.a(lib_a-mprec.o)
 .debug_info    0x0001391f      0xbd7 c:/altera/13.0/nios2eds/bin/gnu/h-i686-mingw32/bin/../lib/gcc/nios2-elf/4.1.2/../../../../nios2-elf/lib\libc.a(lib_a-reallocr.o)
 .debug_info    0x000144f6       0xd7 c:/altera/13.0/nios2eds/bin/gnu/h-i686-mingw32/bin/../lib/gcc/nios2-elf/4.1.2/../../../../nios2-elf/lib\libc.a(lib_a-s_isinfd.o)
 .debug_info    0x000145cd       0xd5 c:/altera/13.0/nios2eds/bin/gnu/h-i686-mingw32/bin/../lib/gcc/nios2-elf/4.1.2/../../../../nios2-elf/lib\libc.a(lib_a-s_isnand.o)
 .debug_info    0x000146a2      0x962 c:/altera/13.0/nios2eds/bin/gnu/h-i686-mingw32/bin/../lib/gcc/nios2-elf/4.1.2/../../../../nios2-elf/lib\libc.a(lib_a-sbrkr.o)
 .debug_info    0x00015004      0xaac c:/altera/13.0/nios2eds/bin/gnu/h-i686-mingw32/bin/../lib/gcc/nios2-elf/4.1.2/../../../../nios2-elf/lib\libc.a(lib_a-stdio.o)
 .debug_info    0x00015ab0       0xdd c:/altera/13.0/nios2eds/bin/gnu/h-i686-mingw32/bin/../lib/gcc/nios2-elf/4.1.2/../../../../nios2-elf/lib\libc.a(lib_a-strcmp.o)
 .debug_info    0x00015b8d      0x993 c:/altera/13.0/nios2eds/bin/gnu/h-i686-mingw32/bin/../lib/gcc/nios2-elf/4.1.2/../../../../nios2-elf/lib\libc.a(lib_a-writer.o)
 .debug_info    0x00016520      0xa1b c:/altera/13.0/nios2eds/bin/gnu/h-i686-mingw32/bin/../lib/gcc/nios2-elf/4.1.2/../../../../nios2-elf/lib\libc.a(lib_a-callocr.o)
 .debug_info    0x00016f3b      0x958 c:/altera/13.0/nios2eds/bin/gnu/h-i686-mingw32/bin/../lib/gcc/nios2-elf/4.1.2/../../../../nios2-elf/lib\libc.a(lib_a-closer.o)
 .debug_info    0x00017893      0x994 c:/altera/13.0/nios2eds/bin/gnu/h-i686-mingw32/bin/../lib/gcc/nios2-elf/4.1.2/../../../../nios2-elf/lib\libc.a(lib_a-fclose.o)
 .debug_info    0x00018227      0xafc c:/altera/13.0/nios2eds/bin/gnu/h-i686-mingw32/bin/../lib/gcc/nios2-elf/4.1.2/../../../../nios2-elf/lib\libc.a(lib_a-fstatr.o)
 .debug_info    0x00018d23       0x8c c:/altera/13.0/nios2eds/bin/gnu/h-i686-mingw32/bin/../lib/gcc/nios2-elf/4.1.2/../../../../nios2-elf/lib\libc.a(lib_a-int_errno.o)
 .debug_info    0x00018daf      0x958 c:/altera/13.0/nios2eds/bin/gnu/h-i686-mingw32/bin/../lib/gcc/nios2-elf/4.1.2/../../../../nios2-elf/lib\libc.a(lib_a-isattyr.o)
 .debug_info    0x00019707      0x981 c:/altera/13.0/nios2eds/bin/gnu/h-i686-mingw32/bin/../lib/gcc/nios2-elf/4.1.2/../../../../nios2-elf/lib\libc.a(lib_a-lseekr.o)
 .debug_info    0x0001a088      0x98c c:/altera/13.0/nios2eds/bin/gnu/h-i686-mingw32/bin/../lib/gcc/nios2-elf/4.1.2/../../../../nios2-elf/lib\libc.a(lib_a-readr.o)
 .debug_info    0x0001aa14      0x724 c:/altera/13.0/nios2eds/bin/gnu/h-i686-mingw32/bin/../lib/gcc/nios2-elf/4.1.2\libgcc.a(_udivdi3.o)
 .debug_info    0x0001b138      0x751 c:/altera/13.0/nios2eds/bin/gnu/h-i686-mingw32/bin/../lib/gcc/nios2-elf/4.1.2\libgcc.a(_umoddi3.o)
 .debug_info    0x0001b889      0x29d c:/altera/13.0/nios2eds/bin/gnu/h-i686-mingw32/bin/../lib/gcc/nios2-elf/4.1.2\libgcc.a(_ne_df.o)
 .debug_info    0x0001bb26      0x29d c:/altera/13.0/nios2eds/bin/gnu/h-i686-mingw32/bin/../lib/gcc/nios2-elf/4.1.2\libgcc.a(_gt_df.o)
 .debug_info    0x0001bdc3      0x29d c:/altera/13.0/nios2eds/bin/gnu/h-i686-mingw32/bin/../lib/gcc/nios2-elf/4.1.2\libgcc.a(_ge_df.o)
 .debug_info    0x0001c060      0x29d c:/altera/13.0/nios2eds/bin/gnu/h-i686-mingw32/bin/../lib/gcc/nios2-elf/4.1.2\libgcc.a(_lt_df.o)
 .debug_info    0x0001c2fd      0x2cd c:/altera/13.0/nios2eds/bin/gnu/h-i686-mingw32/bin/../lib/gcc/nios2-elf/4.1.2\libgcc.a(_df_to_si.o)
 .debug_info    0x0001c5ca      0x21c c:/altera/13.0/nios2eds/bin/gnu/h-i686-mingw32/bin/../lib/gcc/nios2-elf/4.1.2\libgcc.a(lib2-divmod.o)
 .debug_info    0x0001c7e6      0x44d D:/cs723-assignment1/software/freertos_test_bsp/\libhal_bsp.a(alt_close.o)
 .debug_info    0x0001cc33      0x665 D:/cs723-assignment1/software/freertos_test_bsp/\libhal_bsp.a(alt_dev.o)
 .debug_info    0x0001d298      0x14a D:/cs723-assignment1/software/freertos_test_bsp/\libhal_bsp.a(alt_errno.o)
 .debug_info    0x0001d3e2      0x646 D:/cs723-assignment1/software/freertos_test_bsp/\libhal_bsp.a(alt_fstat.o)
 .debug_info    0x0001da28      0x298 D:/cs723-assignment1/software/freertos_test_bsp/\libhal_bsp.a(alt_irq_handler.o)
 .debug_info    0x0001dcc0      0x14d D:/cs723-assignment1/software/freertos_test_bsp/\libhal_bsp.a(alt_irq_vars.o)
 .debug_info    0x0001de0d      0x64c D:/cs723-assignment1/software/freertos_test_bsp/\libhal_bsp.a(alt_isatty.o)
 .debug_info    0x0001e459      0x480 D:/cs723-assignment1/software/freertos_test_bsp/\libhal_bsp.a(alt_lseek.o)
 .debug_info    0x0001e8d9      0x252 D:/cs723-assignment1/software/freertos_test_bsp/\libhal_bsp.a(alt_main.o)
 .debug_info    0x0001eb2b      0xbfe D:/cs723-assignment1/software/freertos_test_bsp/\libhal_bsp.a(alt_malloc_lock.o)
 .debug_info    0x0001f729      0x670 D:/cs723-assignment1/software/freertos_test_bsp/\libhal_bsp.a(alt_read.o)
 .debug_info    0x0001fd99      0x3d8 D:/cs723-assignment1/software/freertos_test_bsp/\libhal_bsp.a(alt_release_fd.o)
 .debug_info    0x00020171      0x2e4 D:/cs723-assignment1/software/freertos_test_bsp/\libhal_bsp.a(alt_sbrk.o)
 .debug_info    0x00020455      0x679 D:/cs723-assignment1/software/freertos_test_bsp/\libhal_bsp.a(alt_write.o)
 .debug_info    0x00020ace     0x12c3 D:/cs723-assignment1/software/freertos_test_bsp/\libhal_bsp.a(alt_sys_init.o)
 .debug_info    0x00021d91      0xb2f D:/cs723-assignment1/software/freertos_test_bsp/\libhal_bsp.a(altera_avalon_cfi_flash.o)
 .debug_info    0x000228c0      0xe1b D:/cs723-assignment1/software/freertos_test_bsp/\libhal_bsp.a(altera_avalon_cfi_flash_table.o)
 .debug_info    0x000236db      0x7bf D:/cs723-assignment1/software/freertos_test_bsp/\libhal_bsp.a(altera_avalon_jtag_uart_fd.o)
 .debug_info    0x00023e9a      0x627 D:/cs723-assignment1/software/freertos_test_bsp/\libhal_bsp.a(altera_avalon_jtag_uart_init.o)
 .debug_info    0x000244c1      0x429 D:/cs723-assignment1/software/freertos_test_bsp/\libhal_bsp.a(altera_avalon_jtag_uart_ioctl.o)
 .debug_info    0x000248ea      0x55f D:/cs723-assignment1/software/freertos_test_bsp/\libhal_bsp.a(altera_avalon_jtag_uart_read.o)
 .debug_info    0x00024e49      0x557 D:/cs723-assignment1/software/freertos_test_bsp/\libhal_bsp.a(altera_avalon_jtag_uart_write.o)
 .debug_info    0x000253a0      0x8d4 D:/cs723-assignment1/software/freertos_test_bsp/\libhal_bsp.a(altera_avalon_lcd_16207.o)
 .debug_info    0x00025c74      0x6f8 D:/cs723-assignment1/software/freertos_test_bsp/\libhal_bsp.a(altera_avalon_lcd_16207_fd.o)
 .debug_info    0x0002636c      0x3b1 D:/cs723-assignment1/software/freertos_test_bsp/\libhal_bsp.a(altera_avalon_timer_sc.o)
 .debug_info    0x0002671d      0x622 D:/cs723-assignment1/software/freertos_test_bsp/\libhal_bsp.a(altera_avalon_uart_fd.o)
 .debug_info    0x00026d3f      0x534 D:/cs723-assignment1/software/freertos_test_bsp/\libhal_bsp.a(altera_avalon_uart_init.o)
 .debug_info    0x00027273      0x4db D:/cs723-assignment1/software/freertos_test_bsp/\libhal_bsp.a(altera_avalon_uart_read.o)
 .debug_info    0x0002774e      0x4d9 D:/cs723-assignment1/software/freertos_test_bsp/\libhal_bsp.a(altera_avalon_uart_write.o)
 .debug_info    0x00027c27      0xad3 D:/cs723-assignment1/software/freertos_test_bsp/\libhal_bsp.a(altera_up_avalon_ps2.o)
 .debug_info    0x000286fa      0x678 D:/cs723-assignment1/software/freertos_test_bsp/\libhal_bsp.a(altera_up_avalon_video_character_buffer_with_dma.o)
 .debug_info    0x00028d72      0xe64 D:/cs723-assignment1/software/freertos_test_bsp/\libhal_bsp.a(altera_up_avalon_video_pixel_buffer_dma.o)
 .debug_info    0x00029bd6      0x45b D:/cs723-assignment1/software/freertos_test_bsp/\libhal_bsp.a(alt_alarm_start.o)
 .debug_info    0x0002a031      0x18a D:/cs723-assignment1/software/freertos_test_bsp/\libhal_bsp.a(alt_dcache_flush.o)
 .debug_info    0x0002a1bb      0x29d D:/cs723-assignment1/software/freertos_test_bsp/\libhal_bsp.a(alt_dev_llist_insert.o)
 .debug_info    0x0002a458       0xf5 D:/cs723-assignment1/software/freertos_test_bsp/\libhal_bsp.a(alt_do_ctors.o)
 .debug_info    0x0002a54d       0xf4 D:/cs723-assignment1/software/freertos_test_bsp/\libhal_bsp.a(alt_do_dtors.o)
 .debug_info    0x0002a641      0x3fe D:/cs723-assignment1/software/freertos_test_bsp/\libhal_bsp.a(alt_find_dev.o)
 .debug_info    0x0002aa3f      0x57f D:/cs723-assignment1/software/freertos_test_bsp/\libhal_bsp.a(alt_flash_dev.o)
 .debug_info    0x0002afbe      0x67b D:/cs723-assignment1/software/freertos_test_bsp/\libhal_bsp.a(alt_io_redirect.o)
 .debug_info    0x0002b639      0x50b D:/cs723-assignment1/software/freertos_test_bsp/\libhal_bsp.a(alt_open.o)
 .debug_info    0x0002bb44      0x417 D:/cs723-assignment1/software/freertos_test_bsp/\libhal_bsp.a(alt_tick.o)
 .debug_info    0x0002bf5b      0x14e D:/cs723-assignment1/software/freertos_test_bsp/\libhal_bsp.a(alt_usleep.o)
 .debug_info    0x0002c0a9      0x190 D:/cs723-assignment1/software/freertos_test_bsp/\libhal_bsp.a(altera_nios2_qsys_irq.o)
 .debug_info    0x0002c239      0x8cf D:/cs723-assignment1/software/freertos_test_bsp/\libhal_bsp.a(altera_avalon_cfi_flash_amd.o)
 .debug_info    0x0002cb08      0x8c5 D:/cs723-assignment1/software/freertos_test_bsp/\libhal_bsp.a(altera_avalon_cfi_flash_intel.o)
 .debug_info    0x0002d3cd      0x191 D:/cs723-assignment1/software/freertos_test_bsp/\libhal_bsp.a(alt_busy_sleep.o)
 .debug_info    0x0002d55e      0x405 D:/cs723-assignment1/software/freertos_test_bsp/\libhal_bsp.a(alt_find_file.o)
 .debug_info    0x0002d963      0x446 D:/cs723-assignment1/software/freertos_test_bsp/\libhal_bsp.a(alt_get_fd.o)
 .debug_info    0x0002dda9      0x181 c:/altera/13.0/nios2eds/bin/gnu/h-i686-mingw32/bin/../lib/gcc/nios2-elf/4.1.2/../../../../nios2-elf/lib\libc.a(lib_a-atexit.o)
 .debug_info    0x0002df2a       0xa0 c:/altera/13.0/nios2eds/bin/gnu/h-i686-mingw32/bin/../lib/gcc/nios2-elf/4.1.2/../../../../nios2-elf/lib\libc.a(lib_a-ctype_.o)
 .debug_info    0x0002dfca      0x93f c:/altera/13.0/nios2eds/bin/gnu/h-i686-mingw32/bin/../lib/gcc/nios2-elf/4.1.2/../../../../nios2-elf/lib\libc.a(lib_a-exit.o)
 .debug_info    0x0002e909      0x99c c:/altera/13.0/nios2eds/bin/gnu/h-i686-mingw32/bin/../lib/gcc/nios2-elf/4.1.2/../../../../nios2-elf/lib\libc.a(lib_a-__atexit.o)
 .debug_info    0x0002f2a5      0x9e2 c:/altera/13.0/nios2eds/bin/gnu/h-i686-mingw32/bin/../lib/gcc/nios2-elf/4.1.2/../../../../nios2-elf/lib\libc.a(lib_a-__call_atexit.o)
 .debug_info    0x0002fc87      0x1be D:/cs723-assignment1/software/freertos_test_bsp/\libhal_bsp.a(alt_exit.o)

.debug_abbrev   0x00000000     0x9823
 *(.debug_abbrev)
 .debug_abbrev  0x00000000       0x14 D:/cs723-assignment1/software/freertos_test_bsp//obj/HAL/src/crt0.o
 .debug_abbrev  0x00000014      0x252 obj/default//D/cs723-assignment1/software/freertos_test/freertos/croutine.o
 .debug_abbrev  0x00000266      0x163 obj/default//D/cs723-assignment1/software/freertos_test/freertos/event_groups.o
 .debug_abbrev  0x000003c9      0x15d obj/default//D/cs723-assignment1/software/freertos_test/freertos/heap.o
 .debug_abbrev  0x00000526       0xfd obj/default//D/cs723-assignment1/software/freertos_test/freertos/list.o
 .debug_abbrev  0x00000623      0x1f8 obj/default//D/cs723-assignment1/software/freertos_test/freertos/port.o
 .debug_abbrev  0x0000081b      0x148 obj/default//D/cs723-assignment1/software/freertos_test/freertos/queue.o
 .debug_abbrev  0x00000963      0x22f obj/default//D/cs723-assignment1/software/freertos_test/freertos/tasks.o
 .debug_abbrev  0x00000b92      0x177 obj/default//D/cs723-assignment1/software/freertos_test/freertos/timers.o
 .debug_abbrev  0x00000d09      0x160 obj/default//D/cs723-assignment1/software/freertos_test/freertos_test.o
 .debug_abbrev  0x00000e69       0x12 obj/default//D/cs723-assignment1/software/freertos_test/freertos/port_asm.o
 .debug_abbrev  0x00000e7b      0x1d2 c:/altera/13.0/nios2eds/bin/gnu/h-i686-mingw32/bin/../lib/gcc/nios2-elf/4.1.2\libgcc.a(_addsub_df.o)
 .debug_abbrev  0x0000104d      0x204 c:/altera/13.0/nios2eds/bin/gnu/h-i686-mingw32/bin/../lib/gcc/nios2-elf/4.1.2\libgcc.a(_mul_df.o)
 .debug_abbrev  0x00001251      0x1e3 c:/altera/13.0/nios2eds/bin/gnu/h-i686-mingw32/bin/../lib/gcc/nios2-elf/4.1.2\libgcc.a(_div_df.o)
 .debug_abbrev  0x00001434      0x151 c:/altera/13.0/nios2eds/bin/gnu/h-i686-mingw32/bin/../lib/gcc/nios2-elf/4.1.2\libgcc.a(_eq_df.o)
 .debug_abbrev  0x00001585      0x13f c:/altera/13.0/nios2eds/bin/gnu/h-i686-mingw32/bin/../lib/gcc/nios2-elf/4.1.2\libgcc.a(_si_to_df.o)
 .debug_abbrev  0x000016c4       0xba c:/altera/13.0/nios2eds/bin/gnu/h-i686-mingw32/bin/../lib/gcc/nios2-elf/4.1.2\libgcc.a(_thenan_df.o)
 .debug_abbrev  0x0000177e      0x155 c:/altera/13.0/nios2eds/bin/gnu/h-i686-mingw32/bin/../lib/gcc/nios2-elf/4.1.2\libgcc.a(_usi_to_df.o)
 .debug_abbrev  0x000018d3       0xee c:/altera/13.0/nios2eds/bin/gnu/h-i686-mingw32/bin/../lib/gcc/nios2-elf/4.1.2\libgcc.a(_muldi3.o)
 .debug_abbrev  0x000019c1       0xb9 c:/altera/13.0/nios2eds/bin/gnu/h-i686-mingw32/bin/../lib/gcc/nios2-elf/4.1.2\libgcc.a(_clzsi2.o)
 .debug_abbrev  0x00001a7a      0x1b1 c:/altera/13.0/nios2eds/bin/gnu/h-i686-mingw32/bin/../lib/gcc/nios2-elf/4.1.2\libgcc.a(_pack_df.o)
 .debug_abbrev  0x00001c2b      0x149 c:/altera/13.0/nios2eds/bin/gnu/h-i686-mingw32/bin/../lib/gcc/nios2-elf/4.1.2\libgcc.a(_unpack_df.o)
 .debug_abbrev  0x00001d74      0x132 c:/altera/13.0/nios2eds/bin/gnu/h-i686-mingw32/bin/../lib/gcc/nios2-elf/4.1.2\libgcc.a(_fpcmp_parts_df.o)
 .debug_abbrev  0x00001ea6       0x61 c:/altera/13.0/nios2eds/bin/gnu/h-i686-mingw32/bin/../lib/gcc/nios2-elf/4.1.2\libgcc.a(_clz.o)
 .debug_abbrev  0x00001f07       0x7c c:/altera/13.0/nios2eds/bin/gnu/h-i686-mingw32/bin/../lib/gcc/nios2-elf/4.1.2/../../../../nios2-elf/lib\libc.a(lib_a-memcmp.o)
 .debug_abbrev  0x00001f83       0xb5 c:/altera/13.0/nios2eds/bin/gnu/h-i686-mingw32/bin/../lib/gcc/nios2-elf/4.1.2/../../../../nios2-elf/lib\libc.a(lib_a-memcpy.o)
 .debug_abbrev  0x00002038       0xb8 c:/altera/13.0/nios2eds/bin/gnu/h-i686-mingw32/bin/../lib/gcc/nios2-elf/4.1.2/../../../../nios2-elf/lib\libc.a(lib_a-memset.o)
 .debug_abbrev  0x000020f0      0x191 c:/altera/13.0/nios2eds/bin/gnu/h-i686-mingw32/bin/../lib/gcc/nios2-elf/4.1.2/../../../../nios2-elf/lib\libc.a(lib_a-printf.o)
 .debug_abbrev  0x00002281      0x1ac c:/altera/13.0/nios2eds/bin/gnu/h-i686-mingw32/bin/../lib/gcc/nios2-elf/4.1.2/../../../../nios2-elf/lib\libc.a(lib_a-puts.o)
 .debug_abbrev  0x0000242d       0x8b c:/altera/13.0/nios2eds/bin/gnu/h-i686-mingw32/bin/../lib/gcc/nios2-elf/4.1.2/../../../../nios2-elf/lib\libc.a(lib_a-strlen.o)
 .debug_abbrev  0x000024b8      0x30a c:/altera/13.0/nios2eds/bin/gnu/h-i686-mingw32/bin/../lib/gcc/nios2-elf/4.1.2/../../../../nios2-elf/lib\libc.a(lib_a-vfprintf.o)
 .debug_abbrev  0x000027c2      0x170 c:/altera/13.0/nios2eds/bin/gnu/h-i686-mingw32/bin/../lib/gcc/nios2-elf/4.1.2/../../../../nios2-elf/lib\libc.a(lib_a-wsetup.o)
 .debug_abbrev  0x00002932      0x232 c:/altera/13.0/nios2eds/bin/gnu/h-i686-mingw32/bin/../lib/gcc/nios2-elf/4.1.2/../../../../nios2-elf/lib\libc.a(lib_a-dtoa.o)
 .debug_abbrev  0x00002b64      0x1c6 c:/altera/13.0/nios2eds/bin/gnu/h-i686-mingw32/bin/../lib/gcc/nios2-elf/4.1.2/../../../../nios2-elf/lib\libc.a(lib_a-fflush.o)
 .debug_abbrev  0x00002d2a      0x24c c:/altera/13.0/nios2eds/bin/gnu/h-i686-mingw32/bin/../lib/gcc/nios2-elf/4.1.2/../../../../nios2-elf/lib\libc.a(lib_a-findfp.o)
 .debug_abbrev  0x00002f76      0x1d9 c:/altera/13.0/nios2eds/bin/gnu/h-i686-mingw32/bin/../lib/gcc/nios2-elf/4.1.2/../../../../nios2-elf/lib\libc.a(lib_a-freer.o)
 .debug_abbrev  0x0000314f      0x1a3 c:/altera/13.0/nios2eds/bin/gnu/h-i686-mingw32/bin/../lib/gcc/nios2-elf/4.1.2/../../../../nios2-elf/lib\libc.a(lib_a-fvwrite.o)
 .debug_abbrev  0x000032f2      0x1e3 c:/altera/13.0/nios2eds/bin/gnu/h-i686-mingw32/bin/../lib/gcc/nios2-elf/4.1.2/../../../../nios2-elf/lib\libc.a(lib_a-fwalk.o)
 .debug_abbrev  0x000034d5      0x157 c:/altera/13.0/nios2eds/bin/gnu/h-i686-mingw32/bin/../lib/gcc/nios2-elf/4.1.2/../../../../nios2-elf/lib\libc.a(lib_a-impure.o)
 .debug_abbrev  0x0000362c      0x1ed c:/altera/13.0/nios2eds/bin/gnu/h-i686-mingw32/bin/../lib/gcc/nios2-elf/4.1.2/../../../../nios2-elf/lib\libc.a(lib_a-locale.o)
 .debug_abbrev  0x00003819      0x197 c:/altera/13.0/nios2eds/bin/gnu/h-i686-mingw32/bin/../lib/gcc/nios2-elf/4.1.2/../../../../nios2-elf/lib\libc.a(lib_a-makebuf.o)
 .debug_abbrev  0x000039b0      0x216 c:/altera/13.0/nios2eds/bin/gnu/h-i686-mingw32/bin/../lib/gcc/nios2-elf/4.1.2/../../../../nios2-elf/lib\libc.a(lib_a-mallocr.o)
 .debug_abbrev  0x00003bc6       0xb5 c:/altera/13.0/nios2eds/bin/gnu/h-i686-mingw32/bin/../lib/gcc/nios2-elf/4.1.2/../../../../nios2-elf/lib\libc.a(lib_a-memchr.o)
 .debug_abbrev  0x00003c7b       0xb5 c:/altera/13.0/nios2eds/bin/gnu/h-i686-mingw32/bin/../lib/gcc/nios2-elf/4.1.2/../../../../nios2-elf/lib\libc.a(lib_a-memmove.o)
 .debug_abbrev  0x00003d30      0x297 c:/altera/13.0/nios2eds/bin/gnu/h-i686-mingw32/bin/../lib/gcc/nios2-elf/4.1.2/../../../../nios2-elf/lib\libc.a(lib_a-mprec.o)
 .debug_abbrev  0x00003fc7      0x1c3 c:/altera/13.0/nios2eds/bin/gnu/h-i686-mingw32/bin/../lib/gcc/nios2-elf/4.1.2/../../../../nios2-elf/lib\libc.a(lib_a-reallocr.o)
 .debug_abbrev  0x0000418a       0x79 c:/altera/13.0/nios2eds/bin/gnu/h-i686-mingw32/bin/../lib/gcc/nios2-elf/4.1.2/../../../../nios2-elf/lib\libc.a(lib_a-s_isinfd.o)
 .debug_abbrev  0x00004203       0x79 c:/altera/13.0/nios2eds/bin/gnu/h-i686-mingw32/bin/../lib/gcc/nios2-elf/4.1.2/../../../../nios2-elf/lib\libc.a(lib_a-s_isnand.o)
 .debug_abbrev  0x0000427c      0x18c c:/altera/13.0/nios2eds/bin/gnu/h-i686-mingw32/bin/../lib/gcc/nios2-elf/4.1.2/../../../../nios2-elf/lib\libc.a(lib_a-sbrkr.o)
 .debug_abbrev  0x00004408      0x1c9 c:/altera/13.0/nios2eds/bin/gnu/h-i686-mingw32/bin/../lib/gcc/nios2-elf/4.1.2/../../../../nios2-elf/lib\libc.a(lib_a-stdio.o)
 .debug_abbrev  0x000045d1       0x80 c:/altera/13.0/nios2eds/bin/gnu/h-i686-mingw32/bin/../lib/gcc/nios2-elf/4.1.2/../../../../nios2-elf/lib\libc.a(lib_a-strcmp.o)
 .debug_abbrev  0x00004651      0x184 c:/altera/13.0/nios2eds/bin/gnu/h-i686-mingw32/bin/../lib/gcc/nios2-elf/4.1.2/../../../../nios2-elf/lib\libc.a(lib_a-writer.o)
 .debug_abbrev  0x000047d5      0x1b8 c:/altera/13.0/nios2eds/bin/gnu/h-i686-mingw32/bin/../lib/gcc/nios2-elf/4.1.2/../../../../nios2-elf/lib\libc.a(lib_a-callocr.o)
 .debug_abbrev  0x0000498d      0x17f c:/altera/13.0/nios2eds/bin/gnu/h-i686-mingw32/bin/../lib/gcc/nios2-elf/4.1.2/../../../../nios2-elf/lib\libc.a(lib_a-closer.o)
 .debug_abbrev  0x00004b0c      0x1a7 c:/altera/13.0/nios2eds/bin/gnu/h-i686-mingw32/bin/../lib/gcc/nios2-elf/4.1.2/../../../../nios2-elf/lib\libc.a(lib_a-fclose.o)
 .debug_abbrev  0x00004cb3      0x18e c:/altera/13.0/nios2eds/bin/gnu/h-i686-mingw32/bin/../lib/gcc/nios2-elf/4.1.2/../../../../nios2-elf/lib\libc.a(lib_a-fstatr.o)
 .debug_abbrev  0x00004e41       0x3b c:/altera/13.0/nios2eds/bin/gnu/h-i686-mingw32/bin/../lib/gcc/nios2-elf/4.1.2/../../../../nios2-elf/lib\libc.a(lib_a-int_errno.o)
 .debug_abbrev  0x00004e7c      0x17f c:/altera/13.0/nios2eds/bin/gnu/h-i686-mingw32/bin/../lib/gcc/nios2-elf/4.1.2/../../../../nios2-elf/lib\libc.a(lib_a-isattyr.o)
 .debug_abbrev  0x00004ffb      0x18e c:/altera/13.0/nios2eds/bin/gnu/h-i686-mingw32/bin/../lib/gcc/nios2-elf/4.1.2/../../../../nios2-elf/lib\libc.a(lib_a-lseekr.o)
 .debug_abbrev  0x00005189      0x17f c:/altera/13.0/nios2eds/bin/gnu/h-i686-mingw32/bin/../lib/gcc/nios2-elf/4.1.2/../../../../nios2-elf/lib\libc.a(lib_a-readr.o)
 .debug_abbrev  0x00005308      0x16b c:/altera/13.0/nios2eds/bin/gnu/h-i686-mingw32/bin/../lib/gcc/nios2-elf/4.1.2\libgcc.a(_udivdi3.o)
 .debug_abbrev  0x00005473      0x18e c:/altera/13.0/nios2eds/bin/gnu/h-i686-mingw32/bin/../lib/gcc/nios2-elf/4.1.2\libgcc.a(_umoddi3.o)
 .debug_abbrev  0x00005601      0x151 c:/altera/13.0/nios2eds/bin/gnu/h-i686-mingw32/bin/../lib/gcc/nios2-elf/4.1.2\libgcc.a(_ne_df.o)
 .debug_abbrev  0x00005752      0x151 c:/altera/13.0/nios2eds/bin/gnu/h-i686-mingw32/bin/../lib/gcc/nios2-elf/4.1.2\libgcc.a(_gt_df.o)
 .debug_abbrev  0x000058a3      0x151 c:/altera/13.0/nios2eds/bin/gnu/h-i686-mingw32/bin/../lib/gcc/nios2-elf/4.1.2\libgcc.a(_ge_df.o)
 .debug_abbrev  0x000059f4      0x151 c:/altera/13.0/nios2eds/bin/gnu/h-i686-mingw32/bin/../lib/gcc/nios2-elf/4.1.2\libgcc.a(_lt_df.o)
 .debug_abbrev  0x00005b45      0x176 c:/altera/13.0/nios2eds/bin/gnu/h-i686-mingw32/bin/../lib/gcc/nios2-elf/4.1.2\libgcc.a(_df_to_si.o)
 .debug_abbrev  0x00005cbb       0xe0 c:/altera/13.0/nios2eds/bin/gnu/h-i686-mingw32/bin/../lib/gcc/nios2-elf/4.1.2\libgcc.a(lib2-divmod.o)
 .debug_abbrev  0x00005d9b       0xfb D:/cs723-assignment1/software/freertos_test_bsp/\libhal_bsp.a(alt_close.o)
 .debug_abbrev  0x00005e96       0xc7 D:/cs723-assignment1/software/freertos_test_bsp/\libhal_bsp.a(alt_dev.o)
 .debug_abbrev  0x00005f5d       0x5e D:/cs723-assignment1/software/freertos_test_bsp/\libhal_bsp.a(alt_errno.o)
 .debug_abbrev  0x00005fbb       0xfb D:/cs723-assignment1/software/freertos_test_bsp/\libhal_bsp.a(alt_fstat.o)
 .debug_abbrev  0x000060b6      0x124 D:/cs723-assignment1/software/freertos_test_bsp/\libhal_bsp.a(alt_irq_handler.o)
 .debug_abbrev  0x000061da       0x44 D:/cs723-assignment1/software/freertos_test_bsp/\libhal_bsp.a(alt_irq_vars.o)
 .debug_abbrev  0x0000621e       0xfb D:/cs723-assignment1/software/freertos_test_bsp/\libhal_bsp.a(alt_isatty.o)
 .debug_abbrev  0x00006319       0xfb D:/cs723-assignment1/software/freertos_test_bsp/\libhal_bsp.a(alt_lseek.o)
 .debug_abbrev  0x00006414       0xbe D:/cs723-assignment1/software/freertos_test_bsp/\libhal_bsp.a(alt_main.o)
 .debug_abbrev  0x000064d2      0x181 D:/cs723-assignment1/software/freertos_test_bsp/\libhal_bsp.a(alt_malloc_lock.o)
 .debug_abbrev  0x00006653       0xfb D:/cs723-assignment1/software/freertos_test_bsp/\libhal_bsp.a(alt_read.o)
 .debug_abbrev  0x0000674e       0xc1 D:/cs723-assignment1/software/freertos_test_bsp/\libhal_bsp.a(alt_release_fd.o)
 .debug_abbrev  0x0000680f      0x11c D:/cs723-assignment1/software/freertos_test_bsp/\libhal_bsp.a(alt_sbrk.o)
 .debug_abbrev  0x0000692b      0x100 D:/cs723-assignment1/software/freertos_test_bsp/\libhal_bsp.a(alt_write.o)
 .debug_abbrev  0x00006a2b      0x1a5 D:/cs723-assignment1/software/freertos_test_bsp/\libhal_bsp.a(alt_sys_init.o)
 .debug_abbrev  0x00006bd0      0x1bf D:/cs723-assignment1/software/freertos_test_bsp/\libhal_bsp.a(altera_avalon_cfi_flash.o)
 .debug_abbrev  0x00006d8f      0x185 D:/cs723-assignment1/software/freertos_test_bsp/\libhal_bsp.a(altera_avalon_cfi_flash_table.o)
 .debug_abbrev  0x00006f14       0xf7 D:/cs723-assignment1/software/freertos_test_bsp/\libhal_bsp.a(altera_avalon_jtag_uart_fd.o)
 .debug_abbrev  0x0000700b      0x17c D:/cs723-assignment1/software/freertos_test_bsp/\libhal_bsp.a(altera_avalon_jtag_uart_init.o)
 .debug_abbrev  0x00007187       0xf0 D:/cs723-assignment1/software/freertos_test_bsp/\libhal_bsp.a(altera_avalon_jtag_uart_ioctl.o)
 .debug_abbrev  0x00007277      0x191 D:/cs723-assignment1/software/freertos_test_bsp/\libhal_bsp.a(altera_avalon_jtag_uart_read.o)
 .debug_abbrev  0x00007408      0x18d D:/cs723-assignment1/software/freertos_test_bsp/\libhal_bsp.a(altera_avalon_jtag_uart_write.o)
 .debug_abbrev  0x00007595      0x1c3 D:/cs723-assignment1/software/freertos_test_bsp/\libhal_bsp.a(altera_avalon_lcd_16207.o)
 .debug_abbrev  0x00007758      0x104 D:/cs723-assignment1/software/freertos_test_bsp/\libhal_bsp.a(altera_avalon_lcd_16207_fd.o)
 .debug_abbrev  0x0000785c      0x137 D:/cs723-assignment1/software/freertos_test_bsp/\libhal_bsp.a(altera_avalon_timer_sc.o)
 .debug_abbrev  0x00007993       0xe8 D:/cs723-assignment1/software/freertos_test_bsp/\libhal_bsp.a(altera_avalon_uart_fd.o)
 .debug_abbrev  0x00007a7b      0x148 D:/cs723-assignment1/software/freertos_test_bsp/\libhal_bsp.a(altera_avalon_uart_init.o)
 .debug_abbrev  0x00007bc3      0x174 D:/cs723-assignment1/software/freertos_test_bsp/\libhal_bsp.a(altera_avalon_uart_read.o)
 .debug_abbrev  0x00007d37      0x17b D:/cs723-assignment1/software/freertos_test_bsp/\libhal_bsp.a(altera_avalon_uart_write.o)
 .debug_abbrev  0x00007eb2      0x16d D:/cs723-assignment1/software/freertos_test_bsp/\libhal_bsp.a(altera_up_avalon_ps2.o)
 .debug_abbrev  0x0000801f      0x111 D:/cs723-assignment1/software/freertos_test_bsp/\libhal_bsp.a(altera_up_avalon_video_character_buffer_with_dma.o)
 .debug_abbrev  0x00008130      0x196 D:/cs723-assignment1/software/freertos_test_bsp/\libhal_bsp.a(altera_up_avalon_video_pixel_buffer_dma.o)
 .debug_abbrev  0x000082c6      0x172 D:/cs723-assignment1/software/freertos_test_bsp/\libhal_bsp.a(alt_alarm_start.o)
 .debug_abbrev  0x00008438       0x7a D:/cs723-assignment1/software/freertos_test_bsp/\libhal_bsp.a(alt_dcache_flush.o)
 .debug_abbrev  0x000084b2       0xf6 D:/cs723-assignment1/software/freertos_test_bsp/\libhal_bsp.a(alt_dev_llist_insert.o)
 .debug_abbrev  0x000085a8       0x76 D:/cs723-assignment1/software/freertos_test_bsp/\libhal_bsp.a(alt_do_ctors.o)
 .debug_abbrev  0x0000861e       0x76 D:/cs723-assignment1/software/freertos_test_bsp/\libhal_bsp.a(alt_do_dtors.o)
 .debug_abbrev  0x00008694       0xcf D:/cs723-assignment1/software/freertos_test_bsp/\libhal_bsp.a(alt_find_dev.o)
 .debug_abbrev  0x00008763      0x121 D:/cs723-assignment1/software/freertos_test_bsp/\libhal_bsp.a(alt_flash_dev.o)
 .debug_abbrev  0x00008884       0xf0 D:/cs723-assignment1/software/freertos_test_bsp/\libhal_bsp.a(alt_io_redirect.o)
 .debug_abbrev  0x00008974      0x112 D:/cs723-assignment1/software/freertos_test_bsp/\libhal_bsp.a(alt_open.o)
 .debug_abbrev  0x00008a86      0x161 D:/cs723-assignment1/software/freertos_test_bsp/\libhal_bsp.a(alt_tick.o)
 .debug_abbrev  0x00008be7       0x5d D:/cs723-assignment1/software/freertos_test_bsp/\libhal_bsp.a(alt_usleep.o)
 .debug_abbrev  0x00008c44       0x64 D:/cs723-assignment1/software/freertos_test_bsp/\libhal_bsp.a(altera_nios2_qsys_irq.o)
 .debug_abbrev  0x00008ca8      0x14d D:/cs723-assignment1/software/freertos_test_bsp/\libhal_bsp.a(altera_avalon_cfi_flash_amd.o)
 .debug_abbrev  0x00008df5      0x14d D:/cs723-assignment1/software/freertos_test_bsp/\libhal_bsp.a(altera_avalon_cfi_flash_intel.o)
 .debug_abbrev  0x00008f42       0x6c D:/cs723-assignment1/software/freertos_test_bsp/\libhal_bsp.a(alt_busy_sleep.o)
 .debug_abbrev  0x00008fae       0xcf D:/cs723-assignment1/software/freertos_test_bsp/\libhal_bsp.a(alt_find_file.o)
 .debug_abbrev  0x0000907d       0xfb D:/cs723-assignment1/software/freertos_test_bsp/\libhal_bsp.a(alt_get_fd.o)
 .debug_abbrev  0x00009178       0xb7 c:/altera/13.0/nios2eds/bin/gnu/h-i686-mingw32/bin/../lib/gcc/nios2-elf/4.1.2/../../../../nios2-elf/lib\libc.a(lib_a-atexit.o)
 .debug_abbrev  0x0000922f       0x61 c:/altera/13.0/nios2eds/bin/gnu/h-i686-mingw32/bin/../lib/gcc/nios2-elf/4.1.2/../../../../nios2-elf/lib\libc.a(lib_a-ctype_.o)
 .debug_abbrev  0x00009290      0x16e c:/altera/13.0/nios2eds/bin/gnu/h-i686-mingw32/bin/../lib/gcc/nios2-elf/4.1.2/../../../../nios2-elf/lib\libc.a(lib_a-exit.o)
 .debug_abbrev  0x000093fe      0x1ae c:/altera/13.0/nios2eds/bin/gnu/h-i686-mingw32/bin/../lib/gcc/nios2-elf/4.1.2/../../../../nios2-elf/lib\libc.a(lib_a-__atexit.o)
 .debug_abbrev  0x000095ac      0x1de c:/altera/13.0/nios2eds/bin/gnu/h-i686-mingw32/bin/../lib/gcc/nios2-elf/4.1.2/../../../../nios2-elf/lib\libc.a(lib_a-__call_atexit.o)
 .debug_abbrev  0x0000978a       0x99 D:/cs723-assignment1/software/freertos_test_bsp/\libhal_bsp.a(alt_exit.o)

.debug_line     0x00000000    0x1ba86
 *(.debug_line)
 .debug_line    0x00000000       0x57 D:/cs723-assignment1/software/freertos_test_bsp//obj/HAL/src/crt0.o
 .debug_line    0x00000057      0x5b1 obj/default//D/cs723-assignment1/software/freertos_test/freertos/croutine.o
 .debug_line    0x00000608      0x721 obj/default//D/cs723-assignment1/software/freertos_test/freertos/event_groups.o
 .debug_line    0x00000d29      0x4d1 obj/default//D/cs723-assignment1/software/freertos_test/freertos/heap.o
 .debug_line    0x000011fa      0x3cf obj/default//D/cs723-assignment1/software/freertos_test/freertos/list.o
 .debug_line    0x000015c9      0x517 obj/default//D/cs723-assignment1/software/freertos_test/freertos/port.o
 .debug_line    0x00001ae0      0xcb6 obj/default//D/cs723-assignment1/software/freertos_test/freertos/queue.o
 .debug_line    0x00002796     0x11db obj/default//D/cs723-assignment1/software/freertos_test/freertos/tasks.o
 .debug_line    0x00003971      0x772 obj/default//D/cs723-assignment1/software/freertos_test/freertos/timers.o
 .debug_line    0x000040e3      0x5cc obj/default//D/cs723-assignment1/software/freertos_test/freertos_test.o
 .debug_line    0x000046af      0x100 obj/default//D/cs723-assignment1/software/freertos_test/freertos/port_asm.o
 .debug_line    0x000047af      0x430 c:/altera/13.0/nios2eds/bin/gnu/h-i686-mingw32/bin/../lib/gcc/nios2-elf/4.1.2\libgcc.a(_addsub_df.o)
 .debug_line    0x00004bdf      0x3e5 c:/altera/13.0/nios2eds/bin/gnu/h-i686-mingw32/bin/../lib/gcc/nios2-elf/4.1.2\libgcc.a(_mul_df.o)
 .debug_line    0x00004fc4      0x301 c:/altera/13.0/nios2eds/bin/gnu/h-i686-mingw32/bin/../lib/gcc/nios2-elf/4.1.2\libgcc.a(_div_df.o)
 .debug_line    0x000052c5      0x129 c:/altera/13.0/nios2eds/bin/gnu/h-i686-mingw32/bin/../lib/gcc/nios2-elf/4.1.2\libgcc.a(_eq_df.o)
 .debug_line    0x000053ee      0x175 c:/altera/13.0/nios2eds/bin/gnu/h-i686-mingw32/bin/../lib/gcc/nios2-elf/4.1.2\libgcc.a(_si_to_df.o)
 .debug_line    0x00005563       0x94 c:/altera/13.0/nios2eds/bin/gnu/h-i686-mingw32/bin/../lib/gcc/nios2-elf/4.1.2\libgcc.a(_thenan_df.o)
 .debug_line    0x000055f7      0x189 c:/altera/13.0/nios2eds/bin/gnu/h-i686-mingw32/bin/../lib/gcc/nios2-elf/4.1.2\libgcc.a(_usi_to_df.o)
 .debug_line    0x00005780      0x11f c:/altera/13.0/nios2eds/bin/gnu/h-i686-mingw32/bin/../lib/gcc/nios2-elf/4.1.2\libgcc.a(_muldi3.o)
 .debug_line    0x0000589f      0x105 c:/altera/13.0/nios2eds/bin/gnu/h-i686-mingw32/bin/../lib/gcc/nios2-elf/4.1.2\libgcc.a(_clzsi2.o)
 .debug_line    0x000059a4      0x222 c:/altera/13.0/nios2eds/bin/gnu/h-i686-mingw32/bin/../lib/gcc/nios2-elf/4.1.2\libgcc.a(_pack_df.o)
 .debug_line    0x00005bc6      0x1e4 c:/altera/13.0/nios2eds/bin/gnu/h-i686-mingw32/bin/../lib/gcc/nios2-elf/4.1.2\libgcc.a(_unpack_df.o)
 .debug_line    0x00005daa      0x187 c:/altera/13.0/nios2eds/bin/gnu/h-i686-mingw32/bin/../lib/gcc/nios2-elf/4.1.2\libgcc.a(_fpcmp_parts_df.o)
 .debug_line    0x00005f31       0xaa c:/altera/13.0/nios2eds/bin/gnu/h-i686-mingw32/bin/../lib/gcc/nios2-elf/4.1.2\libgcc.a(_clz.o)
 .debug_line    0x00005fdb      0x296 c:/altera/13.0/nios2eds/bin/gnu/h-i686-mingw32/bin/../lib/gcc/nios2-elf/4.1.2/../../../../nios2-elf/lib\libc.a(lib_a-memcmp.o)
 .debug_line    0x00006271      0x1a9 c:/altera/13.0/nios2eds/bin/gnu/h-i686-mingw32/bin/../lib/gcc/nios2-elf/4.1.2/../../../../nios2-elf/lib\libc.a(lib_a-memcpy.o)
 .debug_line    0x0000641a      0x2f8 c:/altera/13.0/nios2eds/bin/gnu/h-i686-mingw32/bin/../lib/gcc/nios2-elf/4.1.2/../../../../nios2-elf/lib\libc.a(lib_a-memset.o)
 .debug_line    0x00006712      0x295 c:/altera/13.0/nios2eds/bin/gnu/h-i686-mingw32/bin/../lib/gcc/nios2-elf/4.1.2/../../../../nios2-elf/lib\libc.a(lib_a-printf.o)
 .debug_line    0x000069a7      0x2f1 c:/altera/13.0/nios2eds/bin/gnu/h-i686-mingw32/bin/../lib/gcc/nios2-elf/4.1.2/../../../../nios2-elf/lib\libc.a(lib_a-puts.o)
 .debug_line    0x00006c98      0x264 c:/altera/13.0/nios2eds/bin/gnu/h-i686-mingw32/bin/../lib/gcc/nios2-elf/4.1.2/../../../../nios2-elf/lib\libc.a(lib_a-strlen.o)
 .debug_line    0x00006efc     0x1106 c:/altera/13.0/nios2eds/bin/gnu/h-i686-mingw32/bin/../lib/gcc/nios2-elf/4.1.2/../../../../nios2-elf/lib\libc.a(lib_a-vfprintf.o)
 .debug_line    0x00008002      0x2ea c:/altera/13.0/nios2eds/bin/gnu/h-i686-mingw32/bin/../lib/gcc/nios2-elf/4.1.2/../../../../nios2-elf/lib\libc.a(lib_a-wsetup.o)
 .debug_line    0x000082ec     0x12c0 c:/altera/13.0/nios2eds/bin/gnu/h-i686-mingw32/bin/../lib/gcc/nios2-elf/4.1.2/../../../../nios2-elf/lib\libc.a(lib_a-dtoa.o)
 .debug_line    0x000095ac      0x407 c:/altera/13.0/nios2eds/bin/gnu/h-i686-mingw32/bin/../lib/gcc/nios2-elf/4.1.2/../../../../nios2-elf/lib\libc.a(lib_a-fflush.o)
 .debug_line    0x000099b3      0x5fb c:/altera/13.0/nios2eds/bin/gnu/h-i686-mingw32/bin/../lib/gcc/nios2-elf/4.1.2/../../../../nios2-elf/lib\libc.a(lib_a-findfp.o)
 .debug_line    0x00009fae      0x5e5 c:/altera/13.0/nios2eds/bin/gnu/h-i686-mingw32/bin/../lib/gcc/nios2-elf/4.1.2/../../../../nios2-elf/lib\libc.a(lib_a-freer.o)
 .debug_line    0x0000a593      0x63b c:/altera/13.0/nios2eds/bin/gnu/h-i686-mingw32/bin/../lib/gcc/nios2-elf/4.1.2/../../../../nios2-elf/lib\libc.a(lib_a-fvwrite.o)
 .debug_line    0x0000abce      0x344 c:/altera/13.0/nios2eds/bin/gnu/h-i686-mingw32/bin/../lib/gcc/nios2-elf/4.1.2/../../../../nios2-elf/lib\libc.a(lib_a-fwalk.o)
 .debug_line    0x0000af12      0x224 c:/altera/13.0/nios2eds/bin/gnu/h-i686-mingw32/bin/../lib/gcc/nios2-elf/4.1.2/../../../../nios2-elf/lib\libc.a(lib_a-impure.o)
 .debug_line    0x0000b136      0x2c2 c:/altera/13.0/nios2eds/bin/gnu/h-i686-mingw32/bin/../lib/gcc/nios2-elf/4.1.2/../../../../nios2-elf/lib\libc.a(lib_a-locale.o)
 .debug_line    0x0000b3f8      0x3bd c:/altera/13.0/nios2eds/bin/gnu/h-i686-mingw32/bin/../lib/gcc/nios2-elf/4.1.2/../../../../nios2-elf/lib\libc.a(lib_a-makebuf.o)
 .debug_line    0x0000b7b5      0x804 c:/altera/13.0/nios2eds/bin/gnu/h-i686-mingw32/bin/../lib/gcc/nios2-elf/4.1.2/../../../../nios2-elf/lib\libc.a(lib_a-mallocr.o)
 .debug_line    0x0000bfb9      0x2fa c:/altera/13.0/nios2eds/bin/gnu/h-i686-mingw32/bin/../lib/gcc/nios2-elf/4.1.2/../../../../nios2-elf/lib\libc.a(lib_a-memchr.o)
 .debug_line    0x0000c2b3      0x301 c:/altera/13.0/nios2eds/bin/gnu/h-i686-mingw32/bin/../lib/gcc/nios2-elf/4.1.2/../../../../nios2-elf/lib\libc.a(lib_a-memmove.o)
 .debug_line    0x0000c5b4     0x123d c:/altera/13.0/nios2eds/bin/gnu/h-i686-mingw32/bin/../lib/gcc/nios2-elf/4.1.2/../../../../nios2-elf/lib\libc.a(lib_a-mprec.o)
 .debug_line    0x0000d7f1      0x584 c:/altera/13.0/nios2eds/bin/gnu/h-i686-mingw32/bin/../lib/gcc/nios2-elf/4.1.2/../../../../nios2-elf/lib\libc.a(lib_a-reallocr.o)
 .debug_line    0x0000dd75      0x21c c:/altera/13.0/nios2eds/bin/gnu/h-i686-mingw32/bin/../lib/gcc/nios2-elf/4.1.2/../../../../nios2-elf/lib\libc.a(lib_a-s_isinfd.o)
 .debug_line    0x0000df91      0x214 c:/altera/13.0/nios2eds/bin/gnu/h-i686-mingw32/bin/../lib/gcc/nios2-elf/4.1.2/../../../../nios2-elf/lib\libc.a(lib_a-s_isnand.o)
 .debug_line    0x0000e1a5      0x290 c:/altera/13.0/nios2eds/bin/gnu/h-i686-mingw32/bin/../lib/gcc/nios2-elf/4.1.2/../../../../nios2-elf/lib\libc.a(lib_a-sbrkr.o)
 .debug_line    0x0000e435      0x386 c:/altera/13.0/nios2eds/bin/gnu/h-i686-mingw32/bin/../lib/gcc/nios2-elf/4.1.2/../../../../nios2-elf/lib\libc.a(lib_a-stdio.o)
 .debug_line    0x0000e7bb      0x2cc c:/altera/13.0/nios2eds/bin/gnu/h-i686-mingw32/bin/../lib/gcc/nios2-elf/4.1.2/../../../../nios2-elf/lib\libc.a(lib_a-strcmp.o)
 .debug_line    0x0000ea87      0x291 c:/altera/13.0/nios2eds/bin/gnu/h-i686-mingw32/bin/../lib/gcc/nios2-elf/4.1.2/../../../../nios2-elf/lib\libc.a(lib_a-writer.o)
 .debug_line    0x0000ed18      0x256 c:/altera/13.0/nios2eds/bin/gnu/h-i686-mingw32/bin/../lib/gcc/nios2-elf/4.1.2/../../../../nios2-elf/lib\libc.a(lib_a-callocr.o)
 .debug_line    0x0000ef6e      0x291 c:/altera/13.0/nios2eds/bin/gnu/h-i686-mingw32/bin/../lib/gcc/nios2-elf/4.1.2/../../../../nios2-elf/lib\libc.a(lib_a-closer.o)
 .debug_line    0x0000f1ff      0x2e2 c:/altera/13.0/nios2eds/bin/gnu/h-i686-mingw32/bin/../lib/gcc/nios2-elf/4.1.2/../../../../nios2-elf/lib\libc.a(lib_a-fclose.o)
 .debug_line    0x0000f4e1      0x25e c:/altera/13.0/nios2eds/bin/gnu/h-i686-mingw32/bin/../lib/gcc/nios2-elf/4.1.2/../../../../nios2-elf/lib\libc.a(lib_a-fstatr.o)
 .debug_line    0x0000f73f      0x1d9 c:/altera/13.0/nios2eds/bin/gnu/h-i686-mingw32/bin/../lib/gcc/nios2-elf/4.1.2/../../../../nios2-elf/lib\libc.a(lib_a-int_errno.o)
 .debug_line    0x0000f918      0x292 c:/altera/13.0/nios2eds/bin/gnu/h-i686-mingw32/bin/../lib/gcc/nios2-elf/4.1.2/../../../../nios2-elf/lib\libc.a(lib_a-isattyr.o)
 .debug_line    0x0000fbaa      0x291 c:/altera/13.0/nios2eds/bin/gnu/h-i686-mingw32/bin/../lib/gcc/nios2-elf/4.1.2/../../../../nios2-elf/lib\libc.a(lib_a-lseekr.o)
 .debug_line    0x0000fe3b      0x290 c:/altera/13.0/nios2eds/bin/gnu/h-i686-mingw32/bin/../lib/gcc/nios2-elf/4.1.2/../../../../nios2-elf/lib\libc.a(lib_a-readr.o)
 .debug_line    0x000100cb      0x2f2 c:/altera/13.0/nios2eds/bin/gnu/h-i686-mingw32/bin/../lib/gcc/nios2-elf/4.1.2\libgcc.a(_udivdi3.o)
 .debug_line    0x000103bd      0x37d c:/altera/13.0/nios2eds/bin/gnu/h-i686-mingw32/bin/../lib/gcc/nios2-elf/4.1.2\libgcc.a(_umoddi3.o)
 .debug_line    0x0001073a      0x129 c:/altera/13.0/nios2eds/bin/gnu/h-i686-mingw32/bin/../lib/gcc/nios2-elf/4.1.2\libgcc.a(_ne_df.o)
 .debug_line    0x00010863      0x129 c:/altera/13.0/nios2eds/bin/gnu/h-i686-mingw32/bin/../lib/gcc/nios2-elf/4.1.2\libgcc.a(_gt_df.o)
 .debug_line    0x0001098c      0x129 c:/altera/13.0/nios2eds/bin/gnu/h-i686-mingw32/bin/../lib/gcc/nios2-elf/4.1.2\libgcc.a(_ge_df.o)
 .debug_line    0x00010ab5      0x129 c:/altera/13.0/nios2eds/bin/gnu/h-i686-mingw32/bin/../lib/gcc/nios2-elf/4.1.2\libgcc.a(_lt_df.o)
 .debug_line    0x00010bde      0x149 c:/altera/13.0/nios2eds/bin/gnu/h-i686-mingw32/bin/../lib/gcc/nios2-elf/4.1.2\libgcc.a(_df_to_si.o)
 .debug_line    0x00010d27      0x24f c:/altera/13.0/nios2eds/bin/gnu/h-i686-mingw32/bin/../lib/gcc/nios2-elf/4.1.2\libgcc.a(lib2-divmod.o)
 .debug_line    0x00010f76      0x293 D:/cs723-assignment1/software/freertos_test_bsp/\libhal_bsp.a(alt_close.o)
 .debug_line    0x00011209      0x24e D:/cs723-assignment1/software/freertos_test_bsp/\libhal_bsp.a(alt_dev.o)
 .debug_line    0x00011457      0x1a4 D:/cs723-assignment1/software/freertos_test_bsp/\libhal_bsp.a(alt_errno.o)
 .debug_line    0x000115fb      0x29b D:/cs723-assignment1/software/freertos_test_bsp/\libhal_bsp.a(alt_fstat.o)
 .debug_line    0x00011896      0x25b D:/cs723-assignment1/software/freertos_test_bsp/\libhal_bsp.a(alt_irq_handler.o)
 .debug_line    0x00011af1       0x72 D:/cs723-assignment1/software/freertos_test_bsp/\libhal_bsp.a(alt_irq_vars.o)
 .debug_line    0x00011b63      0x29c D:/cs723-assignment1/software/freertos_test_bsp/\libhal_bsp.a(alt_isatty.o)
 .debug_line    0x00011dff      0x29b D:/cs723-assignment1/software/freertos_test_bsp/\libhal_bsp.a(alt_lseek.o)
 .debug_line    0x0001209a      0x2d8 D:/cs723-assignment1/software/freertos_test_bsp/\libhal_bsp.a(alt_main.o)
 .debug_line    0x00012372      0x206 D:/cs723-assignment1/software/freertos_test_bsp/\libhal_bsp.a(alt_malloc_lock.o)
 .debug_line    0x00012578      0x2c2 D:/cs723-assignment1/software/freertos_test_bsp/\libhal_bsp.a(alt_read.o)
 .debug_line    0x0001283a       0xed D:/cs723-assignment1/software/freertos_test_bsp/\libhal_bsp.a(alt_release_fd.o)
 .debug_line    0x00012927      0x274 D:/cs723-assignment1/software/freertos_test_bsp/\libhal_bsp.a(alt_sbrk.o)
 .debug_line    0x00012b9b      0x2c3 D:/cs723-assignment1/software/freertos_test_bsp/\libhal_bsp.a(alt_write.o)
 .debug_line    0x00012e5e      0x449 D:/cs723-assignment1/software/freertos_test_bsp/\libhal_bsp.a(alt_sys_init.o)
 .debug_line    0x000132a7      0x56d D:/cs723-assignment1/software/freertos_test_bsp/\libhal_bsp.a(altera_avalon_cfi_flash.o)
 .debug_line    0x00013814      0x973 D:/cs723-assignment1/software/freertos_test_bsp/\libhal_bsp.a(altera_avalon_cfi_flash_table.o)
 .debug_line    0x00014187      0x214 D:/cs723-assignment1/software/freertos_test_bsp/\libhal_bsp.a(altera_avalon_jtag_uart_fd.o)
 .debug_line    0x0001439b      0x4b9 D:/cs723-assignment1/software/freertos_test_bsp/\libhal_bsp.a(altera_avalon_jtag_uart_init.o)
 .debug_line    0x00014854      0x311 D:/cs723-assignment1/software/freertos_test_bsp/\libhal_bsp.a(altera_avalon_jtag_uart_ioctl.o)
 .debug_line    0x00014b65      0x405 D:/cs723-assignment1/software/freertos_test_bsp/\libhal_bsp.a(altera_avalon_jtag_uart_read.o)
 .debug_line    0x00014f6a      0x413 D:/cs723-assignment1/software/freertos_test_bsp/\libhal_bsp.a(altera_avalon_jtag_uart_write.o)
 .debug_line    0x0001537d      0x8bb D:/cs723-assignment1/software/freertos_test_bsp/\libhal_bsp.a(altera_avalon_lcd_16207.o)
 .debug_line    0x00015c38      0x1b4 D:/cs723-assignment1/software/freertos_test_bsp/\libhal_bsp.a(altera_avalon_lcd_16207_fd.o)
 .debug_line    0x00015dec      0x2c4 D:/cs723-assignment1/software/freertos_test_bsp/\libhal_bsp.a(altera_avalon_timer_sc.o)
 .debug_line    0x000160b0      0x1cf D:/cs723-assignment1/software/freertos_test_bsp/\libhal_bsp.a(altera_avalon_uart_fd.o)
 .debug_line    0x0001627f      0x4a3 D:/cs723-assignment1/software/freertos_test_bsp/\libhal_bsp.a(altera_avalon_uart_init.o)
 .debug_line    0x00016722      0x415 D:/cs723-assignment1/software/freertos_test_bsp/\libhal_bsp.a(altera_avalon_uart_read.o)
 .debug_line    0x00016b37      0x3f6 D:/cs723-assignment1/software/freertos_test_bsp/\libhal_bsp.a(altera_avalon_uart_write.o)
 .debug_line    0x00016f2d      0x5ef D:/cs723-assignment1/software/freertos_test_bsp/\libhal_bsp.a(altera_up_avalon_ps2.o)
 .debug_line    0x0001751c      0x38f D:/cs723-assignment1/software/freertos_test_bsp/\libhal_bsp.a(altera_up_avalon_video_character_buffer_with_dma.o)
 .debug_line    0x000178ab      0xb85 D:/cs723-assignment1/software/freertos_test_bsp/\libhal_bsp.a(altera_up_avalon_video_pixel_buffer_dma.o)
 .debug_line    0x00018430      0x2ef D:/cs723-assignment1/software/freertos_test_bsp/\libhal_bsp.a(alt_alarm_start.o)
 .debug_line    0x0001871f      0x1db D:/cs723-assignment1/software/freertos_test_bsp/\libhal_bsp.a(alt_dcache_flush.o)
 .debug_line    0x000188fa      0x254 D:/cs723-assignment1/software/freertos_test_bsp/\libhal_bsp.a(alt_dev_llist_insert.o)
 .debug_line    0x00018b4e       0x83 D:/cs723-assignment1/software/freertos_test_bsp/\libhal_bsp.a(alt_do_ctors.o)
 .debug_line    0x00018bd1       0x83 D:/cs723-assignment1/software/freertos_test_bsp/\libhal_bsp.a(alt_do_dtors.o)
 .debug_line    0x00018c54      0x265 D:/cs723-assignment1/software/freertos_test_bsp/\libhal_bsp.a(alt_find_dev.o)
 .debug_line    0x00018eb9      0x262 D:/cs723-assignment1/software/freertos_test_bsp/\libhal_bsp.a(alt_flash_dev.o)
 .debug_line    0x0001911b      0x2ae D:/cs723-assignment1/software/freertos_test_bsp/\libhal_bsp.a(alt_io_redirect.o)
 .debug_line    0x000193c9      0x2f9 D:/cs723-assignment1/software/freertos_test_bsp/\libhal_bsp.a(alt_open.o)
 .debug_line    0x000196c2      0x2ef D:/cs723-assignment1/software/freertos_test_bsp/\libhal_bsp.a(alt_tick.o)
 .debug_line    0x000199b1      0x1f9 D:/cs723-assignment1/software/freertos_test_bsp/\libhal_bsp.a(alt_usleep.o)
 .debug_line    0x00019baa      0x1e1 D:/cs723-assignment1/software/freertos_test_bsp/\libhal_bsp.a(altera_nios2_qsys_irq.o)
 .debug_line    0x00019d8b      0x43f D:/cs723-assignment1/software/freertos_test_bsp/\libhal_bsp.a(altera_avalon_cfi_flash_amd.o)
 .debug_line    0x0001a1ca      0x431 D:/cs723-assignment1/software/freertos_test_bsp/\libhal_bsp.a(altera_avalon_cfi_flash_intel.o)
 .debug_line    0x0001a5fb      0x253 D:/cs723-assignment1/software/freertos_test_bsp/\libhal_bsp.a(alt_busy_sleep.o)
 .debug_line    0x0001a84e      0x276 D:/cs723-assignment1/software/freertos_test_bsp/\libhal_bsp.a(alt_find_file.o)
 .debug_line    0x0001aac4      0x291 D:/cs723-assignment1/software/freertos_test_bsp/\libhal_bsp.a(alt_get_fd.o)
 .debug_line    0x0001ad55      0x1fa c:/altera/13.0/nios2eds/bin/gnu/h-i686-mingw32/bin/../lib/gcc/nios2-elf/4.1.2/../../../../nios2-elf/lib\libc.a(lib_a-atexit.o)
 .debug_line    0x0001af4f       0x7e c:/altera/13.0/nios2eds/bin/gnu/h-i686-mingw32/bin/../lib/gcc/nios2-elf/4.1.2/../../../../nios2-elf/lib\libc.a(lib_a-ctype_.o)
 .debug_line    0x0001afcd      0x232 c:/altera/13.0/nios2eds/bin/gnu/h-i686-mingw32/bin/../lib/gcc/nios2-elf/4.1.2/../../../../nios2-elf/lib\libc.a(lib_a-exit.o)
 .debug_line    0x0001b1ff      0x30d c:/altera/13.0/nios2eds/bin/gnu/h-i686-mingw32/bin/../lib/gcc/nios2-elf/4.1.2/../../../../nios2-elf/lib\libc.a(lib_a-__atexit.o)
 .debug_line    0x0001b50c      0x361 c:/altera/13.0/nios2eds/bin/gnu/h-i686-mingw32/bin/../lib/gcc/nios2-elf/4.1.2/../../../../nios2-elf/lib\libc.a(lib_a-__call_atexit.o)
 .debug_line    0x0001b86d      0x219 D:/cs723-assignment1/software/freertos_test_bsp/\libhal_bsp.a(alt_exit.o)

.debug_frame    0x00000000     0x2ff0
 *(.debug_frame)
 .debug_frame   0x00000000       0xd4 obj/default//D/cs723-assignment1/software/freertos_test/freertos/croutine.o
 .debug_frame   0x000000d4      0x128 obj/default//D/cs723-assignment1/software/freertos_test/freertos/event_groups.o
 .debug_frame   0x000001fc       0xb8 obj/default//D/cs723-assignment1/software/freertos_test/freertos/heap.o
 .debug_frame   0x000002b4       0x9c obj/default//D/cs723-assignment1/software/freertos_test/freertos/list.o
 .debug_frame   0x00000350       0xf0 obj/default//D/cs723-assignment1/software/freertos_test/freertos/port.o
 .debug_frame   0x00000440      0x2b8 obj/default//D/cs723-assignment1/software/freertos_test/freertos/queue.o
 .debug_frame   0x000006f8      0x4c4 obj/default//D/cs723-assignment1/software/freertos_test/freertos/tasks.o
 .debug_frame   0x00000bbc      0x1b4 obj/default//D/cs723-assignment1/software/freertos_test/freertos/timers.o
 .debug_frame   0x00000d70       0xa0 obj/default//D/cs723-assignment1/software/freertos_test/freertos_test.o
 .debug_frame   0x00000e10       0x70 c:/altera/13.0/nios2eds/bin/gnu/h-i686-mingw32/bin/../lib/gcc/nios2-elf/4.1.2\libgcc.a(_addsub_df.o)
 .debug_frame   0x00000e80       0x3c c:/altera/13.0/nios2eds/bin/gnu/h-i686-mingw32/bin/../lib/gcc/nios2-elf/4.1.2\libgcc.a(_mul_df.o)
 .debug_frame   0x00000ebc       0x30 c:/altera/13.0/nios2eds/bin/gnu/h-i686-mingw32/bin/../lib/gcc/nios2-elf/4.1.2\libgcc.a(_div_df.o)
 .debug_frame   0x00000eec       0x2c c:/altera/13.0/nios2eds/bin/gnu/h-i686-mingw32/bin/../lib/gcc/nios2-elf/4.1.2\libgcc.a(_eq_df.o)
 .debug_frame   0x00000f18       0x30 c:/altera/13.0/nios2eds/bin/gnu/h-i686-mingw32/bin/../lib/gcc/nios2-elf/4.1.2\libgcc.a(_si_to_df.o)
 .debug_frame   0x00000f48       0x38 c:/altera/13.0/nios2eds/bin/gnu/h-i686-mingw32/bin/../lib/gcc/nios2-elf/4.1.2\libgcc.a(_usi_to_df.o)
 .debug_frame   0x00000f80       0x2c c:/altera/13.0/nios2eds/bin/gnu/h-i686-mingw32/bin/../lib/gcc/nios2-elf/4.1.2\libgcc.a(_muldi3.o)
 .debug_frame   0x00000fac       0x20 c:/altera/13.0/nios2eds/bin/gnu/h-i686-mingw32/bin/../lib/gcc/nios2-elf/4.1.2\libgcc.a(_clzsi2.o)
 .debug_frame   0x00000fcc       0x2c c:/altera/13.0/nios2eds/bin/gnu/h-i686-mingw32/bin/../lib/gcc/nios2-elf/4.1.2\libgcc.a(_pack_df.o)
 .debug_frame   0x00000ff8       0x20 c:/altera/13.0/nios2eds/bin/gnu/h-i686-mingw32/bin/../lib/gcc/nios2-elf/4.1.2\libgcc.a(_unpack_df.o)
 .debug_frame   0x00001018       0x20 c:/altera/13.0/nios2eds/bin/gnu/h-i686-mingw32/bin/../lib/gcc/nios2-elf/4.1.2\libgcc.a(_fpcmp_parts_df.o)
 .debug_frame   0x00001038       0x20 c:/altera/13.0/nios2eds/bin/gnu/h-i686-mingw32/bin/../lib/gcc/nios2-elf/4.1.2/../../../../nios2-elf/lib\libc.a(lib_a-memcmp.o)
 .debug_frame   0x00001058       0x20 c:/altera/13.0/nios2eds/bin/gnu/h-i686-mingw32/bin/../lib/gcc/nios2-elf/4.1.2/../../../../nios2-elf/lib\libc.a(lib_a-memcpy.o)
 .debug_frame   0x00001078       0x20 c:/altera/13.0/nios2eds/bin/gnu/h-i686-mingw32/bin/../lib/gcc/nios2-elf/4.1.2/../../../../nios2-elf/lib\libc.a(lib_a-memset.o)
 .debug_frame   0x00001098       0x40 c:/altera/13.0/nios2eds/bin/gnu/h-i686-mingw32/bin/../lib/gcc/nios2-elf/4.1.2/../../../../nios2-elf/lib\libc.a(lib_a-printf.o)
 .debug_frame   0x000010d8       0x3c c:/altera/13.0/nios2eds/bin/gnu/h-i686-mingw32/bin/../lib/gcc/nios2-elf/4.1.2/../../../../nios2-elf/lib\libc.a(lib_a-puts.o)
 .debug_frame   0x00001114       0x20 c:/altera/13.0/nios2eds/bin/gnu/h-i686-mingw32/bin/../lib/gcc/nios2-elf/4.1.2/../../../../nios2-elf/lib\libc.a(lib_a-strlen.o)
 .debug_frame   0x00001134       0x64 c:/altera/13.0/nios2eds/bin/gnu/h-i686-mingw32/bin/../lib/gcc/nios2-elf/4.1.2/../../../../nios2-elf/lib\libc.a(lib_a-vfprintf.o)
 .debug_frame   0x00001198       0x2c c:/altera/13.0/nios2eds/bin/gnu/h-i686-mingw32/bin/../lib/gcc/nios2-elf/4.1.2/../../../../nios2-elf/lib\libc.a(lib_a-wsetup.o)
 .debug_frame   0x000011c4       0x64 c:/altera/13.0/nios2eds/bin/gnu/h-i686-mingw32/bin/../lib/gcc/nios2-elf/4.1.2/../../../../nios2-elf/lib\libc.a(lib_a-dtoa.o)
 .debug_frame   0x00001228       0x40 c:/altera/13.0/nios2eds/bin/gnu/h-i686-mingw32/bin/../lib/gcc/nios2-elf/4.1.2/../../../../nios2-elf/lib\libc.a(lib_a-fflush.o)
 .debug_frame   0x00001268      0x118 c:/altera/13.0/nios2eds/bin/gnu/h-i686-mingw32/bin/../lib/gcc/nios2-elf/4.1.2/../../../../nios2-elf/lib\libc.a(lib_a-findfp.o)
 .debug_frame   0x00001380       0x4c c:/altera/13.0/nios2eds/bin/gnu/h-i686-mingw32/bin/../lib/gcc/nios2-elf/4.1.2/../../../../nios2-elf/lib\libc.a(lib_a-freer.o)
 .debug_frame   0x000013cc       0x38 c:/altera/13.0/nios2eds/bin/gnu/h-i686-mingw32/bin/../lib/gcc/nios2-elf/4.1.2/../../../../nios2-elf/lib\libc.a(lib_a-fvwrite.o)
 .debug_frame   0x00001404       0x60 c:/altera/13.0/nios2eds/bin/gnu/h-i686-mingw32/bin/../lib/gcc/nios2-elf/4.1.2/../../../../nios2-elf/lib\libc.a(lib_a-fwalk.o)
 .debug_frame   0x00001464       0x70 c:/altera/13.0/nios2eds/bin/gnu/h-i686-mingw32/bin/../lib/gcc/nios2-elf/4.1.2/../../../../nios2-elf/lib\libc.a(lib_a-locale.o)
 .debug_frame   0x000014d4       0x2c c:/altera/13.0/nios2eds/bin/gnu/h-i686-mingw32/bin/../lib/gcc/nios2-elf/4.1.2/../../../../nios2-elf/lib\libc.a(lib_a-makebuf.o)
 .debug_frame   0x00001500       0x38 c:/altera/13.0/nios2eds/bin/gnu/h-i686-mingw32/bin/../lib/gcc/nios2-elf/4.1.2/../../../../nios2-elf/lib\libc.a(lib_a-mallocr.o)
 .debug_frame   0x00001538       0x20 c:/altera/13.0/nios2eds/bin/gnu/h-i686-mingw32/bin/../lib/gcc/nios2-elf/4.1.2/../../../../nios2-elf/lib\libc.a(lib_a-memchr.o)
 .debug_frame   0x00001558       0x20 c:/altera/13.0/nios2eds/bin/gnu/h-i686-mingw32/bin/../lib/gcc/nios2-elf/4.1.2/../../../../nios2-elf/lib\libc.a(lib_a-memmove.o)
 .debug_frame   0x00001578      0x218 c:/altera/13.0/nios2eds/bin/gnu/h-i686-mingw32/bin/../lib/gcc/nios2-elf/4.1.2/../../../../nios2-elf/lib\libc.a(lib_a-mprec.o)
 .debug_frame   0x00001790       0x38 c:/altera/13.0/nios2eds/bin/gnu/h-i686-mingw32/bin/../lib/gcc/nios2-elf/4.1.2/../../../../nios2-elf/lib\libc.a(lib_a-reallocr.o)
 .debug_frame   0x000017c8       0x20 c:/altera/13.0/nios2eds/bin/gnu/h-i686-mingw32/bin/../lib/gcc/nios2-elf/4.1.2/../../../../nios2-elf/lib\libc.a(lib_a-s_isinfd.o)
 .debug_frame   0x000017e8       0x20 c:/altera/13.0/nios2eds/bin/gnu/h-i686-mingw32/bin/../lib/gcc/nios2-elf/4.1.2/../../../../nios2-elf/lib\libc.a(lib_a-s_isnand.o)
 .debug_frame   0x00001808       0x2c c:/altera/13.0/nios2eds/bin/gnu/h-i686-mingw32/bin/../lib/gcc/nios2-elf/4.1.2/../../../../nios2-elf/lib\libc.a(lib_a-sbrkr.o)
 .debug_frame   0x00001834       0x78 c:/altera/13.0/nios2eds/bin/gnu/h-i686-mingw32/bin/../lib/gcc/nios2-elf/4.1.2/../../../../nios2-elf/lib\libc.a(lib_a-stdio.o)
 .debug_frame   0x000018ac       0x20 c:/altera/13.0/nios2eds/bin/gnu/h-i686-mingw32/bin/../lib/gcc/nios2-elf/4.1.2/../../../../nios2-elf/lib\libc.a(lib_a-strcmp.o)
 .debug_frame   0x000018cc       0x2c c:/altera/13.0/nios2eds/bin/gnu/h-i686-mingw32/bin/../lib/gcc/nios2-elf/4.1.2/../../../../nios2-elf/lib\libc.a(lib_a-writer.o)
 .debug_frame   0x000018f8       0x28 c:/altera/13.0/nios2eds/bin/gnu/h-i686-mingw32/bin/../lib/gcc/nios2-elf/4.1.2/../../../../nios2-elf/lib\libc.a(lib_a-callocr.o)
 .debug_frame   0x00001920       0x2c c:/altera/13.0/nios2eds/bin/gnu/h-i686-mingw32/bin/../lib/gcc/nios2-elf/4.1.2/../../../../nios2-elf/lib\libc.a(lib_a-closer.o)
 .debug_frame   0x0000194c       0x3c c:/altera/13.0/nios2eds/bin/gnu/h-i686-mingw32/bin/../lib/gcc/nios2-elf/4.1.2/../../../../nios2-elf/lib\libc.a(lib_a-fclose.o)
 .debug_frame   0x00001988       0x2c c:/altera/13.0/nios2eds/bin/gnu/h-i686-mingw32/bin/../lib/gcc/nios2-elf/4.1.2/../../../../nios2-elf/lib\libc.a(lib_a-fstatr.o)
 .debug_frame   0x000019b4       0x2c c:/altera/13.0/nios2eds/bin/gnu/h-i686-mingw32/bin/../lib/gcc/nios2-elf/4.1.2/../../../../nios2-elf/lib\libc.a(lib_a-isattyr.o)
 .debug_frame   0x000019e0       0x2c c:/altera/13.0/nios2eds/bin/gnu/h-i686-mingw32/bin/../lib/gcc/nios2-elf/4.1.2/../../../../nios2-elf/lib\libc.a(lib_a-lseekr.o)
 .debug_frame   0x00001a0c       0x2c c:/altera/13.0/nios2eds/bin/gnu/h-i686-mingw32/bin/../lib/gcc/nios2-elf/4.1.2/../../../../nios2-elf/lib\libc.a(lib_a-readr.o)
 .debug_frame   0x00001a38       0x38 c:/altera/13.0/nios2eds/bin/gnu/h-i686-mingw32/bin/../lib/gcc/nios2-elf/4.1.2\libgcc.a(_udivdi3.o)
 .debug_frame   0x00001a70       0x38 c:/altera/13.0/nios2eds/bin/gnu/h-i686-mingw32/bin/../lib/gcc/nios2-elf/4.1.2\libgcc.a(_umoddi3.o)
 .debug_frame   0x00001aa8       0x2c c:/altera/13.0/nios2eds/bin/gnu/h-i686-mingw32/bin/../lib/gcc/nios2-elf/4.1.2\libgcc.a(_ne_df.o)
 .debug_frame   0x00001ad4       0x2c c:/altera/13.0/nios2eds/bin/gnu/h-i686-mingw32/bin/../lib/gcc/nios2-elf/4.1.2\libgcc.a(_gt_df.o)
 .debug_frame   0x00001b00       0x2c c:/altera/13.0/nios2eds/bin/gnu/h-i686-mingw32/bin/../lib/gcc/nios2-elf/4.1.2\libgcc.a(_ge_df.o)
 .debug_frame   0x00001b2c       0x2c c:/altera/13.0/nios2eds/bin/gnu/h-i686-mingw32/bin/../lib/gcc/nios2-elf/4.1.2\libgcc.a(_lt_df.o)
 .debug_frame   0x00001b58       0x28 c:/altera/13.0/nios2eds/bin/gnu/h-i686-mingw32/bin/../lib/gcc/nios2-elf/4.1.2\libgcc.a(_df_to_si.o)
 .debug_frame   0x00001b80       0x70 c:/altera/13.0/nios2eds/bin/gnu/h-i686-mingw32/bin/../lib/gcc/nios2-elf/4.1.2\libgcc.a(lib2-divmod.o)
 .debug_frame   0x00001bf0       0x48 D:/cs723-assignment1/software/freertos_test_bsp/\libhal_bsp.a(alt_close.o)
 .debug_frame   0x00001c38       0x2c D:/cs723-assignment1/software/freertos_test_bsp/\libhal_bsp.a(alt_dev.o)
 .debug_frame   0x00001c64       0x48 D:/cs723-assignment1/software/freertos_test_bsp/\libhal_bsp.a(alt_fstat.o)
 .debug_frame   0x00001cac       0x2c D:/cs723-assignment1/software/freertos_test_bsp/\libhal_bsp.a(alt_irq_handler.o)
 .debug_frame   0x00001cd8       0x48 D:/cs723-assignment1/software/freertos_test_bsp/\libhal_bsp.a(alt_isatty.o)
 .debug_frame   0x00001d20       0x48 D:/cs723-assignment1/software/freertos_test_bsp/\libhal_bsp.a(alt_lseek.o)
 .debug_frame   0x00001d68       0x2c D:/cs723-assignment1/software/freertos_test_bsp/\libhal_bsp.a(alt_main.o)
 .debug_frame   0x00001d94       0x48 D:/cs723-assignment1/software/freertos_test_bsp/\libhal_bsp.a(alt_malloc_lock.o)
 .debug_frame   0x00001ddc       0x48 D:/cs723-assignment1/software/freertos_test_bsp/\libhal_bsp.a(alt_read.o)
 .debug_frame   0x00001e24       0x2c D:/cs723-assignment1/software/freertos_test_bsp/\libhal_bsp.a(alt_release_fd.o)
 .debug_frame   0x00001e50       0x2c D:/cs723-assignment1/software/freertos_test_bsp/\libhal_bsp.a(alt_sbrk.o)
 .debug_frame   0x00001e7c       0x48 D:/cs723-assignment1/software/freertos_test_bsp/\libhal_bsp.a(alt_write.o)
 .debug_frame   0x00001ec4       0x64 D:/cs723-assignment1/software/freertos_test_bsp/\libhal_bsp.a(alt_sys_init.o)
 .debug_frame   0x00001f28       0xd4 D:/cs723-assignment1/software/freertos_test_bsp/\libhal_bsp.a(altera_avalon_cfi_flash.o)
 .debug_frame   0x00001ffc      0x210 D:/cs723-assignment1/software/freertos_test_bsp/\libhal_bsp.a(altera_avalon_cfi_flash_table.o)
 .debug_frame   0x0000220c       0x80 D:/cs723-assignment1/software/freertos_test_bsp/\libhal_bsp.a(altera_avalon_jtag_uart_fd.o)
 .debug_frame   0x0000228c       0x80 D:/cs723-assignment1/software/freertos_test_bsp/\libhal_bsp.a(altera_avalon_jtag_uart_init.o)
 .debug_frame   0x0000230c       0x2c D:/cs723-assignment1/software/freertos_test_bsp/\libhal_bsp.a(altera_avalon_jtag_uart_ioctl.o)
 .debug_frame   0x00002338       0x2c D:/cs723-assignment1/software/freertos_test_bsp/\libhal_bsp.a(altera_avalon_jtag_uart_read.o)
 .debug_frame   0x00002364       0x2c D:/cs723-assignment1/software/freertos_test_bsp/\libhal_bsp.a(altera_avalon_jtag_uart_write.o)
 .debug_frame   0x00002390      0x10c D:/cs723-assignment1/software/freertos_test_bsp/\libhal_bsp.a(altera_avalon_lcd_16207.o)
 .debug_frame   0x0000249c       0x2c D:/cs723-assignment1/software/freertos_test_bsp/\libhal_bsp.a(altera_avalon_lcd_16207_fd.o)
 .debug_frame   0x000024c8       0x48 D:/cs723-assignment1/software/freertos_test_bsp/\libhal_bsp.a(altera_avalon_timer_sc.o)
 .debug_frame   0x00002510       0x64 D:/cs723-assignment1/software/freertos_test_bsp/\libhal_bsp.a(altera_avalon_uart_fd.o)
 .debug_frame   0x00002574       0x9c D:/cs723-assignment1/software/freertos_test_bsp/\libhal_bsp.a(altera_avalon_uart_init.o)
 .debug_frame   0x00002610       0x48 D:/cs723-assignment1/software/freertos_test_bsp/\libhal_bsp.a(altera_avalon_uart_read.o)
 .debug_frame   0x00002658       0x48 D:/cs723-assignment1/software/freertos_test_bsp/\libhal_bsp.a(altera_avalon_uart_write.o)
 .debug_frame   0x000026a0      0x208 D:/cs723-assignment1/software/freertos_test_bsp/\libhal_bsp.a(altera_up_avalon_ps2.o)
 .debug_frame   0x000028a8       0x9c D:/cs723-assignment1/software/freertos_test_bsp/\libhal_bsp.a(altera_up_avalon_video_character_buffer_with_dma.o)
 .debug_frame   0x00002944      0x160 D:/cs723-assignment1/software/freertos_test_bsp/\libhal_bsp.a(altera_up_avalon_video_pixel_buffer_dma.o)
 .debug_frame   0x00002aa4       0x2c D:/cs723-assignment1/software/freertos_test_bsp/\libhal_bsp.a(alt_alarm_start.o)
 .debug_frame   0x00002ad0       0x2c D:/cs723-assignment1/software/freertos_test_bsp/\libhal_bsp.a(alt_dcache_flush.o)
 .debug_frame   0x00002afc       0x48 D:/cs723-assignment1/software/freertos_test_bsp/\libhal_bsp.a(alt_dev_llist_insert.o)
 .debug_frame   0x00002b44       0x2c D:/cs723-assignment1/software/freertos_test_bsp/\libhal_bsp.a(alt_do_ctors.o)
 .debug_frame   0x00002b70       0x2c D:/cs723-assignment1/software/freertos_test_bsp/\libhal_bsp.a(alt_do_dtors.o)
 .debug_frame   0x00002b9c       0x2c D:/cs723-assignment1/software/freertos_test_bsp/\libhal_bsp.a(alt_find_dev.o)
 .debug_frame   0x00002bc8       0x48 D:/cs723-assignment1/software/freertos_test_bsp/\libhal_bsp.a(alt_flash_dev.o)
 .debug_frame   0x00002c10       0x48 D:/cs723-assignment1/software/freertos_test_bsp/\libhal_bsp.a(alt_io_redirect.o)
 .debug_frame   0x00002c58       0x64 D:/cs723-assignment1/software/freertos_test_bsp/\libhal_bsp.a(alt_open.o)
 .debug_frame   0x00002cbc       0x48 D:/cs723-assignment1/software/freertos_test_bsp/\libhal_bsp.a(alt_tick.o)
 .debug_frame   0x00002d04       0x2c D:/cs723-assignment1/software/freertos_test_bsp/\libhal_bsp.a(alt_usleep.o)
 .debug_frame   0x00002d30       0x2c D:/cs723-assignment1/software/freertos_test_bsp/\libhal_bsp.a(altera_nios2_qsys_irq.o)
 .debug_frame   0x00002d5c       0x80 D:/cs723-assignment1/software/freertos_test_bsp/\libhal_bsp.a(altera_avalon_cfi_flash_amd.o)
 .debug_frame   0x00002ddc       0x80 D:/cs723-assignment1/software/freertos_test_bsp/\libhal_bsp.a(altera_avalon_cfi_flash_intel.o)
 .debug_frame   0x00002e5c       0x2c D:/cs723-assignment1/software/freertos_test_bsp/\libhal_bsp.a(alt_busy_sleep.o)
 .debug_frame   0x00002e88       0x2c D:/cs723-assignment1/software/freertos_test_bsp/\libhal_bsp.a(alt_find_file.o)
 .debug_frame   0x00002eb4       0x2c D:/cs723-assignment1/software/freertos_test_bsp/\libhal_bsp.a(alt_get_fd.o)
 .debug_frame   0x00002ee0       0x20 c:/altera/13.0/nios2eds/bin/gnu/h-i686-mingw32/bin/../lib/gcc/nios2-elf/4.1.2/../../../../nios2-elf/lib\libc.a(lib_a-atexit.o)
 .debug_frame   0x00002f00       0x28 c:/altera/13.0/nios2eds/bin/gnu/h-i686-mingw32/bin/../lib/gcc/nios2-elf/4.1.2/../../../../nios2-elf/lib\libc.a(lib_a-exit.o)
 .debug_frame   0x00002f28       0x34 c:/altera/13.0/nios2eds/bin/gnu/h-i686-mingw32/bin/../lib/gcc/nios2-elf/4.1.2/../../../../nios2-elf/lib\libc.a(lib_a-__atexit.o)
 .debug_frame   0x00002f5c       0x4c c:/altera/13.0/nios2eds/bin/gnu/h-i686-mingw32/bin/../lib/gcc/nios2-elf/4.1.2/../../../../nios2-elf/lib\libc.a(lib_a-__call_atexit.o)
 .debug_frame   0x00002fa8       0x48 D:/cs723-assignment1/software/freertos_test_bsp/\libhal_bsp.a(alt_exit.o)

.debug_str      0x00000000     0x2bad
 *(.debug_str)
 .debug_str     0x00000000       0x4f obj/default//D/cs723-assignment1/software/freertos_test/freertos/croutine.o
 .debug_str     0x0000004f       0xf8 obj/default//D/cs723-assignment1/software/freertos_test/freertos/event_groups.o
 .debug_str     0x00000147       0x12 obj/default//D/cs723-assignment1/software/freertos_test/freertos/heap.o
 .debug_str     0x00000159       0x3d obj/default//D/cs723-assignment1/software/freertos_test/freertos/list.o
 .debug_str     0x00000196       0x21 obj/default//D/cs723-assignment1/software/freertos_test/freertos/port.o
 .debug_str     0x000001b7       0xfb obj/default//D/cs723-assignment1/software/freertos_test/freertos/queue.o
 .debug_str     0x000002b2      0x152 obj/default//D/cs723-assignment1/software/freertos_test/freertos/tasks.o
 .debug_str     0x00000404       0xd1 obj/default//D/cs723-assignment1/software/freertos_test/freertos/timers.o
 .debug_str     0x000004d5       0xa0 obj/default//D/cs723-assignment1/software/freertos_test/freertos_test.o
 .debug_str     0x00000575      0x202 c:/altera/13.0/nios2eds/bin/gnu/h-i686-mingw32/bin/../lib/gcc/nios2-elf/4.1.2\libgcc.a(_addsub_df.o)
                                0x26c (size before relaxing)
 .debug_str     0x00000777       0x45 c:/altera/13.0/nios2eds/bin/gnu/h-i686-mingw32/bin/../lib/gcc/nios2-elf/4.1.2\libgcc.a(_mul_df.o)
                                0x23e (size before relaxing)
 .debug_str     0x000007bc       0x35 c:/altera/13.0/nios2eds/bin/gnu/h-i686-mingw32/bin/../lib/gcc/nios2-elf/4.1.2\libgcc.a(_div_df.o)
                                0x22e (size before relaxing)
 .debug_str     0x000007f1        0x8 c:/altera/13.0/nios2eds/bin/gnu/h-i686-mingw32/bin/../lib/gcc/nios2-elf/4.1.2\libgcc.a(_eq_df.o)
                                0x1fb (size before relaxing)
 .debug_str     0x000007f9       0x18 c:/altera/13.0/nios2eds/bin/gnu/h-i686-mingw32/bin/../lib/gcc/nios2-elf/4.1.2\libgcc.a(_si_to_df.o)
                                0x1db (size before relaxing)
 .debug_str     0x00000000      0x1a0 c:/altera/13.0/nios2eds/bin/gnu/h-i686-mingw32/bin/../lib/gcc/nios2-elf/4.1.2\libgcc.a(_thenan_df.o)
 .debug_str     0x00000811       0x14 c:/altera/13.0/nios2eds/bin/gnu/h-i686-mingw32/bin/../lib/gcc/nios2-elf/4.1.2\libgcc.a(_usi_to_df.o)
                                0x1d7 (size before relaxing)
 .debug_str     0x00000825       0x8d c:/altera/13.0/nios2eds/bin/gnu/h-i686-mingw32/bin/../lib/gcc/nios2-elf/4.1.2\libgcc.a(_muldi3.o)
                                0x1a9 (size before relaxing)
 .debug_str     0x000008b2       0x20 c:/altera/13.0/nios2eds/bin/gnu/h-i686-mingw32/bin/../lib/gcc/nios2-elf/4.1.2\libgcc.a(_clzsi2.o)
                                0x17b (size before relaxing)
 .debug_str     0x000008d2       0x10 c:/altera/13.0/nios2eds/bin/gnu/h-i686-mingw32/bin/../lib/gcc/nios2-elf/4.1.2\libgcc.a(_pack_df.o)
                                0x203 (size before relaxing)
 .debug_str     0x000008e2        0xb c:/altera/13.0/nios2eds/bin/gnu/h-i686-mingw32/bin/../lib/gcc/nios2-elf/4.1.2\libgcc.a(_unpack_df.o)
                                0x1e5 (size before relaxing)
 .debug_str     0x000008ed       0x10 c:/altera/13.0/nios2eds/bin/gnu/h-i686-mingw32/bin/../lib/gcc/nios2-elf/4.1.2\libgcc.a(_fpcmp_parts_df.o)
                                0x1c3 (size before relaxing)
 .debug_str     0x00000000      0x15e c:/altera/13.0/nios2eds/bin/gnu/h-i686-mingw32/bin/../lib/gcc/nios2-elf/4.1.2\libgcc.a(_clz.o)
 .debug_str     0x000008fd       0xcb c:/altera/13.0/nios2eds/bin/gnu/h-i686-mingw32/bin/../lib/gcc/nios2-elf/4.1.2/../../../../nios2-elf/lib\libc.a(lib_a-memcmp.o)
                                0x167 (size before relaxing)
 .debug_str     0x000009c8       0x69 c:/altera/13.0/nios2eds/bin/gnu/h-i686-mingw32/bin/../lib/gcc/nios2-elf/4.1.2/../../../../nios2-elf/lib\libc.a(lib_a-memcpy.o)
                                0x125 (size before relaxing)
 .debug_str     0x00000a31       0x56 c:/altera/13.0/nios2eds/bin/gnu/h-i686-mingw32/bin/../lib/gcc/nios2-elf/4.1.2/../../../../nios2-elf/lib\libc.a(lib_a-memset.o)
                                0x17b (size before relaxing)
 .debug_str     0x00000a87      0x43c c:/altera/13.0/nios2eds/bin/gnu/h-i686-mingw32/bin/../lib/gcc/nios2-elf/4.1.2/../../../../nios2-elf/lib\libc.a(lib_a-printf.o)
                                0x520 (size before relaxing)
 .debug_str     0x00000ec3       0x81 c:/altera/13.0/nios2eds/bin/gnu/h-i686-mingw32/bin/../lib/gcc/nios2-elf/4.1.2/../../../../nios2-elf/lib\libc.a(lib_a-puts.o)
                                0x546 (size before relaxing)
 .debug_str     0x00000f44       0x42 c:/altera/13.0/nios2eds/bin/gnu/h-i686-mingw32/bin/../lib/gcc/nios2-elf/4.1.2/../../../../nios2-elf/lib\libc.a(lib_a-strlen.o)
                                0x17a (size before relaxing)
 .debug_str     0x00000f86      0x185 c:/altera/13.0/nios2eds/bin/gnu/h-i686-mingw32/bin/../lib/gcc/nios2-elf/4.1.2/../../../../nios2-elf/lib\libc.a(lib_a-vfprintf.o)
                                0x6f5 (size before relaxing)
 .debug_str     0x0000110b       0x46 c:/altera/13.0/nios2eds/bin/gnu/h-i686-mingw32/bin/../lib/gcc/nios2-elf/4.1.2/../../../../nios2-elf/lib\libc.a(lib_a-wsetup.o)
                                0x509 (size before relaxing)
 .debug_str     0x00001151      0x18b c:/altera/13.0/nios2eds/bin/gnu/h-i686-mingw32/bin/../lib/gcc/nios2-elf/4.1.2/../../../../nios2-elf/lib\libc.a(lib_a-dtoa.o)
                                0x5fe (size before relaxing)
 .debug_str     0x000012dc       0x65 c:/altera/13.0/nios2eds/bin/gnu/h-i686-mingw32/bin/../lib/gcc/nios2-elf/4.1.2/../../../../nios2-elf/lib\libc.a(lib_a-fflush.o)
                                0x52f (size before relaxing)
 .debug_str     0x00001341      0x102 c:/altera/13.0/nios2eds/bin/gnu/h-i686-mingw32/bin/../lib/gcc/nios2-elf/4.1.2/../../../../nios2-elf/lib\libc.a(lib_a-findfp.o)
                                0x5f1 (size before relaxing)
 .debug_str     0x00001443      0x15b c:/altera/13.0/nios2eds/bin/gnu/h-i686-mingw32/bin/../lib/gcc/nios2-elf/4.1.2/../../../../nios2-elf/lib\libc.a(lib_a-freer.o)
                                0x640 (size before relaxing)
 .debug_str     0x0000159e       0x66 c:/altera/13.0/nios2eds/bin/gnu/h-i686-mingw32/bin/../lib/gcc/nios2-elf/4.1.2/../../../../nios2-elf/lib\libc.a(lib_a-fvwrite.o)
                                0x560 (size before relaxing)
 .debug_str     0x00001604       0x5e c:/altera/13.0/nios2eds/bin/gnu/h-i686-mingw32/bin/../lib/gcc/nios2-elf/4.1.2/../../../../nios2-elf/lib\libc.a(lib_a-fwalk.o)
                                0x532 (size before relaxing)
 .debug_str     0x00001662       0xce c:/altera/13.0/nios2eds/bin/gnu/h-i686-mingw32/bin/../lib/gcc/nios2-elf/4.1.2/../../../../nios2-elf/lib\libc.a(lib_a-impure.o)
                                0x517 (size before relaxing)
 .debug_str     0x00001730      0x222 c:/altera/13.0/nios2eds/bin/gnu/h-i686-mingw32/bin/../lib/gcc/nios2-elf/4.1.2/../../../../nios2-elf/lib\libc.a(lib_a-locale.o)
                                0x6a6 (size before relaxing)
 .debug_str     0x00001952      0x123 c:/altera/13.0/nios2eds/bin/gnu/h-i686-mingw32/bin/../lib/gcc/nios2-elf/4.1.2/../../../../nios2-elf/lib\libc.a(lib_a-makebuf.o)
                                0x603 (size before relaxing)
 .debug_str     0x00001a75       0xef c:/altera/13.0/nios2eds/bin/gnu/h-i686-mingw32/bin/../lib/gcc/nios2-elf/4.1.2/../../../../nios2-elf/lib\libc.a(lib_a-mallocr.o)
                                0x6ee (size before relaxing)
 .debug_str     0x00001b64       0x55 c:/altera/13.0/nios2eds/bin/gnu/h-i686-mingw32/bin/../lib/gcc/nios2-elf/4.1.2/../../../../nios2-elf/lib\libc.a(lib_a-memchr.o)
                                0x188 (size before relaxing)
 .debug_str     0x00001bb9       0x4d c:/altera/13.0/nios2eds/bin/gnu/h-i686-mingw32/bin/../lib/gcc/nios2-elf/4.1.2/../../../../nios2-elf/lib\libc.a(lib_a-memmove.o)
                                0x19a (size before relaxing)
 .debug_str     0x00001c06       0xf8 c:/altera/13.0/nios2eds/bin/gnu/h-i686-mingw32/bin/../lib/gcc/nios2-elf/4.1.2/../../../../nios2-elf/lib\libc.a(lib_a-mprec.o)
                                0x60b (size before relaxing)
 .debug_str     0x00001cfe       0x59 c:/altera/13.0/nios2eds/bin/gnu/h-i686-mingw32/bin/../lib/gcc/nios2-elf/4.1.2/../../../../nios2-elf/lib\libc.a(lib_a-reallocr.o)
                                0x5c0 (size before relaxing)
 .debug_str     0x00001d57       0xd9 c:/altera/13.0/nios2eds/bin/gnu/h-i686-mingw32/bin/../lib/gcc/nios2-elf/4.1.2/../../../../nios2-elf/lib\libc.a(lib_a-s_isinfd.o)
                                0x187 (size before relaxing)
 .debug_str     0x00001e30       0x46 c:/altera/13.0/nios2eds/bin/gnu/h-i686-mingw32/bin/../lib/gcc/nios2-elf/4.1.2/../../../../nios2-elf/lib\libc.a(lib_a-s_isnand.o)
                                0x187 (size before relaxing)
 .debug_str     0x00001e76       0x50 c:/altera/13.0/nios2eds/bin/gnu/h-i686-mingw32/bin/../lib/gcc/nios2-elf/4.1.2/../../../../nios2-elf/lib\libc.a(lib_a-sbrkr.o)
                                0x508 (size before relaxing)
 .debug_str     0x00001ec6       0x62 c:/altera/13.0/nios2eds/bin/gnu/h-i686-mingw32/bin/../lib/gcc/nios2-elf/4.1.2/../../../../nios2-elf/lib\libc.a(lib_a-stdio.o)
                                0x52e (size before relaxing)
 .debug_str     0x00001f28       0x42 c:/altera/13.0/nios2eds/bin/gnu/h-i686-mingw32/bin/../lib/gcc/nios2-elf/4.1.2/../../../../nios2-elf/lib\libc.a(lib_a-strcmp.o)
                                0x160 (size before relaxing)
 .debug_str     0x00001f6a       0x4c c:/altera/13.0/nios2eds/bin/gnu/h-i686-mingw32/bin/../lib/gcc/nios2-elf/4.1.2/../../../../nios2-elf/lib\libc.a(lib_a-writer.o)
                                0x50b (size before relaxing)
 .debug_str     0x00001fb6       0x19 c:/altera/13.0/nios2eds/bin/gnu/h-i686-mingw32/bin/../lib/gcc/nios2-elf/4.1.2/../../../../nios2-elf/lib\libc.a(lib_a-callocr.o)
                                0x53f (size before relaxing)
 .debug_str     0x00001fcf       0x43 c:/altera/13.0/nios2eds/bin/gnu/h-i686-mingw32/bin/../lib/gcc/nios2-elf/4.1.2/../../../../nios2-elf/lib\libc.a(lib_a-closer.o)
                                0x4fb (size before relaxing)
 .debug_str     0x00002012       0x4b c:/altera/13.0/nios2eds/bin/gnu/h-i686-mingw32/bin/../lib/gcc/nios2-elf/4.1.2/../../../../nios2-elf/lib\libc.a(lib_a-fclose.o)
                                0x513 (size before relaxing)
 .debug_str     0x0000205d       0x49 c:/altera/13.0/nios2eds/bin/gnu/h-i686-mingw32/bin/../lib/gcc/nios2-elf/4.1.2/../../../../nios2-elf/lib\libc.a(lib_a-fstatr.o)
                                0x5ee (size before relaxing)
 .debug_str     0x000020a6       0x3d c:/altera/13.0/nios2eds/bin/gnu/h-i686-mingw32/bin/../lib/gcc/nios2-elf/4.1.2/../../../../nios2-elf/lib\libc.a(lib_a-int_errno.o)
                                0x160 (size before relaxing)
 .debug_str     0x000020e3       0x45 c:/altera/13.0/nios2eds/bin/gnu/h-i686-mingw32/bin/../lib/gcc/nios2-elf/4.1.2/../../../../nios2-elf/lib\libc.a(lib_a-isattyr.o)
                                0x4fd (size before relaxing)
 .debug_str     0x00002128       0x43 c:/altera/13.0/nios2eds/bin/gnu/h-i686-mingw32/bin/../lib/gcc/nios2-elf/4.1.2/../../../../nios2-elf/lib\libc.a(lib_a-lseekr.o)
                                0x509 (size before relaxing)
 .debug_str     0x0000216b       0x41 c:/altera/13.0/nios2eds/bin/gnu/h-i686-mingw32/bin/../lib/gcc/nios2-elf/4.1.2/../../../../nios2-elf/lib\libc.a(lib_a-readr.o)
                                0x509 (size before relaxing)
 .debug_str     0x000021ac       0x35 c:/altera/13.0/nios2eds/bin/gnu/h-i686-mingw32/bin/../lib/gcc/nios2-elf/4.1.2\libgcc.a(_udivdi3.o)
                                0x1f4 (size before relaxing)
 .debug_str     0x000021e1        0xa c:/altera/13.0/nios2eds/bin/gnu/h-i686-mingw32/bin/../lib/gcc/nios2-elf/4.1.2\libgcc.a(_umoddi3.o)
                                0x1f4 (size before relaxing)
 .debug_str     0x000021eb        0x8 c:/altera/13.0/nios2eds/bin/gnu/h-i686-mingw32/bin/../lib/gcc/nios2-elf/4.1.2\libgcc.a(_ne_df.o)
                                0x1fb (size before relaxing)
 .debug_str     0x000021f3        0x8 c:/altera/13.0/nios2eds/bin/gnu/h-i686-mingw32/bin/../lib/gcc/nios2-elf/4.1.2\libgcc.a(_gt_df.o)
                                0x1fb (size before relaxing)
 .debug_str     0x000021fb        0x8 c:/altera/13.0/nios2eds/bin/gnu/h-i686-mingw32/bin/../lib/gcc/nios2-elf/4.1.2\libgcc.a(_ge_df.o)
                                0x1fb (size before relaxing)
 .debug_str     0x00002203        0x8 c:/altera/13.0/nios2eds/bin/gnu/h-i686-mingw32/bin/../lib/gcc/nios2-elf/4.1.2\libgcc.a(_lt_df.o)
                                0x1fb (size before relaxing)
 .debug_str     0x0000220b        0xa c:/altera/13.0/nios2eds/bin/gnu/h-i686-mingw32/bin/../lib/gcc/nios2-elf/4.1.2\libgcc.a(_df_to_si.o)
                                0x204 (size before relaxing)
 .debug_str     0x00002215       0x76 c:/altera/13.0/nios2eds/bin/gnu/h-i686-mingw32/bin/../lib/gcc/nios2-elf/4.1.2\libgcc.a(lib2-divmod.o)
                                0x1b1 (size before relaxing)
 .debug_str     0x0000228b       0x12 D:/cs723-assignment1/software/freertos_test_bsp/\libhal_bsp.a(alt_close.o)
 .debug_str     0x0000229d       0x12 D:/cs723-assignment1/software/freertos_test_bsp/\libhal_bsp.a(alt_dev.o)
 .debug_str     0x000022af       0x12 D:/cs723-assignment1/software/freertos_test_bsp/\libhal_bsp.a(alt_errno.o)
 .debug_str     0x000022c1       0x12 D:/cs723-assignment1/software/freertos_test_bsp/\libhal_bsp.a(alt_fstat.o)
 .debug_str     0x000022d3       0x12 D:/cs723-assignment1/software/freertos_test_bsp/\libhal_bsp.a(alt_irq_handler.o)
 .debug_str     0x000022e5       0x12 D:/cs723-assignment1/software/freertos_test_bsp/\libhal_bsp.a(alt_isatty.o)
 .debug_str     0x000022f7       0x12 D:/cs723-assignment1/software/freertos_test_bsp/\libhal_bsp.a(alt_lseek.o)
 .debug_str     0x00002309       0x12 D:/cs723-assignment1/software/freertos_test_bsp/\libhal_bsp.a(alt_main.o)
 .debug_str     0x0000231b       0x20 D:/cs723-assignment1/software/freertos_test_bsp/\libhal_bsp.a(alt_malloc_lock.o)
 .debug_str     0x0000233b       0x12 D:/cs723-assignment1/software/freertos_test_bsp/\libhal_bsp.a(alt_read.o)
 .debug_str     0x0000234d       0x1a D:/cs723-assignment1/software/freertos_test_bsp/\libhal_bsp.a(alt_sbrk.o)
 .debug_str     0x00002367       0x12 D:/cs723-assignment1/software/freertos_test_bsp/\libhal_bsp.a(alt_write.o)
 .debug_str     0x00002379       0xd8 D:/cs723-assignment1/software/freertos_test_bsp/\libhal_bsp.a(alt_sys_init.o)
 .debug_str     0x00002451       0x82 D:/cs723-assignment1/software/freertos_test_bsp/\libhal_bsp.a(altera_avalon_cfi_flash.o)
 .debug_str     0x000024d3       0x6d D:/cs723-assignment1/software/freertos_test_bsp/\libhal_bsp.a(altera_avalon_cfi_flash_table.o)
 .debug_str     0x00002540       0x12 D:/cs723-assignment1/software/freertos_test_bsp/\libhal_bsp.a(altera_avalon_jtag_uart_fd.o)
 .debug_str     0x00002552       0x1a D:/cs723-assignment1/software/freertos_test_bsp/\libhal_bsp.a(altera_avalon_jtag_uart_init.o)
 .debug_str     0x0000256c       0x12 D:/cs723-assignment1/software/freertos_test_bsp/\libhal_bsp.a(altera_avalon_jtag_uart_ioctl.o)
 .debug_str     0x0000257e       0x1a D:/cs723-assignment1/software/freertos_test_bsp/\libhal_bsp.a(altera_avalon_jtag_uart_read.o)
 .debug_str     0x00002598       0x1a D:/cs723-assignment1/software/freertos_test_bsp/\libhal_bsp.a(altera_avalon_jtag_uart_write.o)
 .debug_str     0x000025b2       0x25 D:/cs723-assignment1/software/freertos_test_bsp/\libhal_bsp.a(altera_avalon_lcd_16207.o)
 .debug_str     0x000025d7       0x12 D:/cs723-assignment1/software/freertos_test_bsp/\libhal_bsp.a(altera_avalon_lcd_16207_fd.o)
 .debug_str     0x000025e9       0x12 D:/cs723-assignment1/software/freertos_test_bsp/\libhal_bsp.a(altera_avalon_timer_sc.o)
 .debug_str     0x000025fb       0x12 D:/cs723-assignment1/software/freertos_test_bsp/\libhal_bsp.a(altera_avalon_uart_fd.o)
 .debug_str     0x0000260d       0x19 D:/cs723-assignment1/software/freertos_test_bsp/\libhal_bsp.a(altera_avalon_uart_init.o)
 .debug_str     0x00002626       0x1a D:/cs723-assignment1/software/freertos_test_bsp/\libhal_bsp.a(altera_avalon_uart_read.o)
 .debug_str     0x00002640       0x1a D:/cs723-assignment1/software/freertos_test_bsp/\libhal_bsp.a(altera_avalon_uart_write.o)
 .debug_str     0x0000265a       0x3a D:/cs723-assignment1/software/freertos_test_bsp/\libhal_bsp.a(altera_up_avalon_ps2.o)
 .debug_str     0x00002694       0x35 D:/cs723-assignment1/software/freertos_test_bsp/\libhal_bsp.a(altera_up_avalon_video_character_buffer_with_dma.o)
 .debug_str     0x000026c9       0x93 D:/cs723-assignment1/software/freertos_test_bsp/\libhal_bsp.a(altera_up_avalon_video_pixel_buffer_dma.o)
 .debug_str     0x0000275c       0x23 D:/cs723-assignment1/software/freertos_test_bsp/\libhal_bsp.a(alt_alarm_start.o)
 .debug_str     0x0000277f       0x12 D:/cs723-assignment1/software/freertos_test_bsp/\libhal_bsp.a(alt_dcache_flush.o)
 .debug_str     0x00002791       0x12 D:/cs723-assignment1/software/freertos_test_bsp/\libhal_bsp.a(alt_dev_llist_insert.o)
 .debug_str     0x000027a3       0x12 D:/cs723-assignment1/software/freertos_test_bsp/\libhal_bsp.a(alt_find_dev.o)
 .debug_str     0x000027b5       0x2d D:/cs723-assignment1/software/freertos_test_bsp/\libhal_bsp.a(alt_flash_dev.o)
 .debug_str     0x000027e2       0x12 D:/cs723-assignment1/software/freertos_test_bsp/\libhal_bsp.a(alt_io_redirect.o)
 .debug_str     0x000027f4       0x12 D:/cs723-assignment1/software/freertos_test_bsp/\libhal_bsp.a(alt_open.o)
 .debug_str     0x00002806       0x1a D:/cs723-assignment1/software/freertos_test_bsp/\libhal_bsp.a(alt_tick.o)
 .debug_str     0x00002820       0x12 D:/cs723-assignment1/software/freertos_test_bsp/\libhal_bsp.a(alt_usleep.o)
 .debug_str     0x00002832       0x12 D:/cs723-assignment1/software/freertos_test_bsp/\libhal_bsp.a(altera_nios2_qsys_irq.o)
 .debug_str     0x00002844       0x76 D:/cs723-assignment1/software/freertos_test_bsp/\libhal_bsp.a(altera_avalon_cfi_flash_amd.o)
 .debug_str     0x000028ba       0x7d D:/cs723-assignment1/software/freertos_test_bsp/\libhal_bsp.a(altera_avalon_cfi_flash_intel.o)
 .debug_str     0x00002937       0x12 D:/cs723-assignment1/software/freertos_test_bsp/\libhal_bsp.a(alt_busy_sleep.o)
 .debug_str     0x00002949       0x12 D:/cs723-assignment1/software/freertos_test_bsp/\libhal_bsp.a(alt_find_file.o)
 .debug_str     0x0000295b       0x12 D:/cs723-assignment1/software/freertos_test_bsp/\libhal_bsp.a(alt_get_fd.o)
 .debug_str     0x0000296d       0x3b c:/altera/13.0/nios2eds/bin/gnu/h-i686-mingw32/bin/../lib/gcc/nios2-elf/4.1.2/../../../../nios2-elf/lib\libc.a(lib_a-atexit.o)
                                0x1bc (size before relaxing)
 .debug_str     0x000029a8       0xdf c:/altera/13.0/nios2eds/bin/gnu/h-i686-mingw32/bin/../lib/gcc/nios2-elf/4.1.2/../../../../nios2-elf/lib\libc.a(lib_a-ctype_.o)
                                0x102 (size before relaxing)
 .debug_str     0x00002a87       0x3e c:/altera/13.0/nios2eds/bin/gnu/h-i686-mingw32/bin/../lib/gcc/nios2-elf/4.1.2/../../../../nios2-elf/lib\libc.a(lib_a-exit.o)
                                0x509 (size before relaxing)
 .debug_str     0x00002ac5       0x51 c:/altera/13.0/nios2eds/bin/gnu/h-i686-mingw32/bin/../lib/gcc/nios2-elf/4.1.2/../../../../nios2-elf/lib\libc.a(lib_a-__atexit.o)
                                0x521 (size before relaxing)
 .debug_str     0x00002b16       0x7b c:/altera/13.0/nios2eds/bin/gnu/h-i686-mingw32/bin/../lib/gcc/nios2-elf/4.1.2/../../../../nios2-elf/lib\libc.a(lib_a-__call_atexit.o)
                                0x54b (size before relaxing)
 .debug_str     0x00002b91       0x1c D:/cs723-assignment1/software/freertos_test_bsp/\libhal_bsp.a(alt_exit.o)

.debug_loc      0x00000000     0xe009
 *(.debug_loc)
 .debug_loc     0x00000000      0x12d obj/default//D/cs723-assignment1/software/freertos_test/freertos/croutine.o
 .debug_loc     0x0000012d      0x1ae obj/default//D/cs723-assignment1/software/freertos_test/freertos/event_groups.o
 .debug_loc     0x000002db      0x102 obj/default//D/cs723-assignment1/software/freertos_test/freertos/heap.o
 .debug_loc     0x000003dd       0xd7 obj/default//D/cs723-assignment1/software/freertos_test/freertos/list.o
 .debug_loc     0x000004b4      0x159 obj/default//D/cs723-assignment1/software/freertos_test/freertos/port.o
 .debug_loc     0x0000060d      0x408 obj/default//D/cs723-assignment1/software/freertos_test/freertos/queue.o
 .debug_loc     0x00000a15      0x739 obj/default//D/cs723-assignment1/software/freertos_test/freertos/tasks.o
 .debug_loc     0x0000114e      0x285 obj/default//D/cs723-assignment1/software/freertos_test/freertos/timers.o
 .debug_loc     0x000013d3       0xd7 obj/default//D/cs723-assignment1/software/freertos_test/freertos_test.o
 .debug_loc     0x000014aa      0x47a c:/altera/13.0/nios2eds/bin/gnu/h-i686-mingw32/bin/../lib/gcc/nios2-elf/4.1.2\libgcc.a(_addsub_df.o)
 .debug_loc     0x00001924      0x3b4 c:/altera/13.0/nios2eds/bin/gnu/h-i686-mingw32/bin/../lib/gcc/nios2-elf/4.1.2\libgcc.a(_mul_df.o)
 .debug_loc     0x00001cd8      0x1df c:/altera/13.0/nios2eds/bin/gnu/h-i686-mingw32/bin/../lib/gcc/nios2-elf/4.1.2\libgcc.a(_div_df.o)
 .debug_loc     0x00001eb7       0x70 c:/altera/13.0/nios2eds/bin/gnu/h-i686-mingw32/bin/../lib/gcc/nios2-elf/4.1.2\libgcc.a(_eq_df.o)
 .debug_loc     0x00001f27       0x9a c:/altera/13.0/nios2eds/bin/gnu/h-i686-mingw32/bin/../lib/gcc/nios2-elf/4.1.2\libgcc.a(_si_to_df.o)
 .debug_loc     0x00001fc1       0x5b c:/altera/13.0/nios2eds/bin/gnu/h-i686-mingw32/bin/../lib/gcc/nios2-elf/4.1.2\libgcc.a(_usi_to_df.o)
 .debug_loc     0x0000201c       0xc4 c:/altera/13.0/nios2eds/bin/gnu/h-i686-mingw32/bin/../lib/gcc/nios2-elf/4.1.2\libgcc.a(_muldi3.o)
 .debug_loc     0x000020e0       0x1e c:/altera/13.0/nios2eds/bin/gnu/h-i686-mingw32/bin/../lib/gcc/nios2-elf/4.1.2\libgcc.a(_clzsi2.o)
 .debug_loc     0x000020fe      0x184 c:/altera/13.0/nios2eds/bin/gnu/h-i686-mingw32/bin/../lib/gcc/nios2-elf/4.1.2\libgcc.a(_pack_df.o)
 .debug_loc     0x00002282       0xe5 c:/altera/13.0/nios2eds/bin/gnu/h-i686-mingw32/bin/../lib/gcc/nios2-elf/4.1.2\libgcc.a(_unpack_df.o)
 .debug_loc     0x00002367      0x114 c:/altera/13.0/nios2eds/bin/gnu/h-i686-mingw32/bin/../lib/gcc/nios2-elf/4.1.2/../../../../nios2-elf/lib\libc.a(lib_a-memcmp.o)
 .debug_loc     0x0000247b       0xca c:/altera/13.0/nios2eds/bin/gnu/h-i686-mingw32/bin/../lib/gcc/nios2-elf/4.1.2/../../../../nios2-elf/lib\libc.a(lib_a-memcpy.o)
 .debug_loc     0x00002545       0xa1 c:/altera/13.0/nios2eds/bin/gnu/h-i686-mingw32/bin/../lib/gcc/nios2-elf/4.1.2/../../../../nios2-elf/lib\libc.a(lib_a-memset.o)
 .debug_loc     0x000025e6       0xcb c:/altera/13.0/nios2eds/bin/gnu/h-i686-mingw32/bin/../lib/gcc/nios2-elf/4.1.2/../../../../nios2-elf/lib\libc.a(lib_a-printf.o)
 .debug_loc     0x000026b1       0xa2 c:/altera/13.0/nios2eds/bin/gnu/h-i686-mingw32/bin/../lib/gcc/nios2-elf/4.1.2/../../../../nios2-elf/lib\libc.a(lib_a-puts.o)
 .debug_loc     0x00002753       0x3c c:/altera/13.0/nios2eds/bin/gnu/h-i686-mingw32/bin/../lib/gcc/nios2-elf/4.1.2/../../../../nios2-elf/lib\libc.a(lib_a-strlen.o)
 .debug_loc     0x0000278f     0x1e0d c:/altera/13.0/nios2eds/bin/gnu/h-i686-mingw32/bin/../lib/gcc/nios2-elf/4.1.2/../../../../nios2-elf/lib\libc.a(lib_a-vfprintf.o)
 .debug_loc     0x0000459c       0x7c c:/altera/13.0/nios2eds/bin/gnu/h-i686-mingw32/bin/../lib/gcc/nios2-elf/4.1.2/../../../../nios2-elf/lib\libc.a(lib_a-wsetup.o)
 .debug_loc     0x00004618     0x1dfa c:/altera/13.0/nios2eds/bin/gnu/h-i686-mingw32/bin/../lib/gcc/nios2-elf/4.1.2/../../../../nios2-elf/lib\libc.a(lib_a-dtoa.o)
 .debug_loc     0x00006412      0x1f6 c:/altera/13.0/nios2eds/bin/gnu/h-i686-mingw32/bin/../lib/gcc/nios2-elf/4.1.2/../../../../nios2-elf/lib\libc.a(lib_a-fflush.o)
 .debug_loc     0x00006608      0x19f c:/altera/13.0/nios2eds/bin/gnu/h-i686-mingw32/bin/../lib/gcc/nios2-elf/4.1.2/../../../../nios2-elf/lib\libc.a(lib_a-findfp.o)
 .debug_loc     0x000067a7      0x4a7 c:/altera/13.0/nios2eds/bin/gnu/h-i686-mingw32/bin/../lib/gcc/nios2-elf/4.1.2/../../../../nios2-elf/lib\libc.a(lib_a-freer.o)
 .debug_loc     0x00006c4e      0x4e4 c:/altera/13.0/nios2eds/bin/gnu/h-i686-mingw32/bin/../lib/gcc/nios2-elf/4.1.2/../../../../nios2-elf/lib\libc.a(lib_a-fvwrite.o)
 .debug_loc     0x00007132      0x1d2 c:/altera/13.0/nios2eds/bin/gnu/h-i686-mingw32/bin/../lib/gcc/nios2-elf/4.1.2/../../../../nios2-elf/lib\libc.a(lib_a-fwalk.o)
 .debug_loc     0x00007304       0xe1 c:/altera/13.0/nios2eds/bin/gnu/h-i686-mingw32/bin/../lib/gcc/nios2-elf/4.1.2/../../../../nios2-elf/lib\libc.a(lib_a-locale.o)
 .debug_loc     0x000073e5      0x11c c:/altera/13.0/nios2eds/bin/gnu/h-i686-mingw32/bin/../lib/gcc/nios2-elf/4.1.2/../../../../nios2-elf/lib\libc.a(lib_a-makebuf.o)
 .debug_loc     0x00007501      0xaeb c:/altera/13.0/nios2eds/bin/gnu/h-i686-mingw32/bin/../lib/gcc/nios2-elf/4.1.2/../../../../nios2-elf/lib\libc.a(lib_a-mallocr.o)
 .debug_loc     0x00007fec      0x106 c:/altera/13.0/nios2eds/bin/gnu/h-i686-mingw32/bin/../lib/gcc/nios2-elf/4.1.2/../../../../nios2-elf/lib\libc.a(lib_a-memchr.o)
 .debug_loc     0x000080f2      0x117 c:/altera/13.0/nios2eds/bin/gnu/h-i686-mingw32/bin/../lib/gcc/nios2-elf/4.1.2/../../../../nios2-elf/lib\libc.a(lib_a-memmove.o)
 .debug_loc     0x00008209     0x14d6 c:/altera/13.0/nios2eds/bin/gnu/h-i686-mingw32/bin/../lib/gcc/nios2-elf/4.1.2/../../../../nios2-elf/lib\libc.a(lib_a-mprec.o)
 .debug_loc     0x000096df      0x8c0 c:/altera/13.0/nios2eds/bin/gnu/h-i686-mingw32/bin/../lib/gcc/nios2-elf/4.1.2/../../../../nios2-elf/lib\libc.a(lib_a-reallocr.o)
 .debug_loc     0x00009f9f       0x36 c:/altera/13.0/nios2eds/bin/gnu/h-i686-mingw32/bin/../lib/gcc/nios2-elf/4.1.2/../../../../nios2-elf/lib\libc.a(lib_a-s_isinfd.o)
 .debug_loc     0x00009fd5       0x18 c:/altera/13.0/nios2eds/bin/gnu/h-i686-mingw32/bin/../lib/gcc/nios2-elf/4.1.2/../../../../nios2-elf/lib\libc.a(lib_a-s_isnand.o)
 .debug_loc     0x00009fed       0x5b c:/altera/13.0/nios2eds/bin/gnu/h-i686-mingw32/bin/../lib/gcc/nios2-elf/4.1.2/../../../../nios2-elf/lib\libc.a(lib_a-sbrkr.o)
 .debug_loc     0x0000a048      0x21f c:/altera/13.0/nios2eds/bin/gnu/h-i686-mingw32/bin/../lib/gcc/nios2-elf/4.1.2/../../../../nios2-elf/lib\libc.a(lib_a-stdio.o)
 .debug_loc     0x0000a267       0x65 c:/altera/13.0/nios2eds/bin/gnu/h-i686-mingw32/bin/../lib/gcc/nios2-elf/4.1.2/../../../../nios2-elf/lib\libc.a(lib_a-strcmp.o)
 .debug_loc     0x0000a2cc       0x97 c:/altera/13.0/nios2eds/bin/gnu/h-i686-mingw32/bin/../lib/gcc/nios2-elf/4.1.2/../../../../nios2-elf/lib\libc.a(lib_a-writer.o)
 .debug_loc     0x0000a363       0xe9 c:/altera/13.0/nios2eds/bin/gnu/h-i686-mingw32/bin/../lib/gcc/nios2-elf/4.1.2/../../../../nios2-elf/lib\libc.a(lib_a-callocr.o)
 .debug_loc     0x0000a44c       0x5b c:/altera/13.0/nios2eds/bin/gnu/h-i686-mingw32/bin/../lib/gcc/nios2-elf/4.1.2/../../../../nios2-elf/lib\libc.a(lib_a-closer.o)
 .debug_loc     0x0000a4a7       0xe4 c:/altera/13.0/nios2eds/bin/gnu/h-i686-mingw32/bin/../lib/gcc/nios2-elf/4.1.2/../../../../nios2-elf/lib\libc.a(lib_a-fclose.o)
 .debug_loc     0x0000a58b       0x79 c:/altera/13.0/nios2eds/bin/gnu/h-i686-mingw32/bin/../lib/gcc/nios2-elf/4.1.2/../../../../nios2-elf/lib\libc.a(lib_a-fstatr.o)
 .debug_loc     0x0000a604       0x5b c:/altera/13.0/nios2eds/bin/gnu/h-i686-mingw32/bin/../lib/gcc/nios2-elf/4.1.2/../../../../nios2-elf/lib\libc.a(lib_a-isattyr.o)
 .debug_loc     0x0000a65f       0x97 c:/altera/13.0/nios2eds/bin/gnu/h-i686-mingw32/bin/../lib/gcc/nios2-elf/4.1.2/../../../../nios2-elf/lib\libc.a(lib_a-lseekr.o)
 .debug_loc     0x0000a6f6       0x97 c:/altera/13.0/nios2eds/bin/gnu/h-i686-mingw32/bin/../lib/gcc/nios2-elf/4.1.2/../../../../nios2-elf/lib\libc.a(lib_a-readr.o)
 .debug_loc     0x0000a78d      0xc12 c:/altera/13.0/nios2eds/bin/gnu/h-i686-mingw32/bin/../lib/gcc/nios2-elf/4.1.2\libgcc.a(_udivdi3.o)
 .debug_loc     0x0000b39f      0xc26 c:/altera/13.0/nios2eds/bin/gnu/h-i686-mingw32/bin/../lib/gcc/nios2-elf/4.1.2\libgcc.a(_umoddi3.o)
 .debug_loc     0x0000bfc5       0x70 c:/altera/13.0/nios2eds/bin/gnu/h-i686-mingw32/bin/../lib/gcc/nios2-elf/4.1.2\libgcc.a(_ne_df.o)
 .debug_loc     0x0000c035       0x70 c:/altera/13.0/nios2eds/bin/gnu/h-i686-mingw32/bin/../lib/gcc/nios2-elf/4.1.2\libgcc.a(_gt_df.o)
 .debug_loc     0x0000c0a5       0x70 c:/altera/13.0/nios2eds/bin/gnu/h-i686-mingw32/bin/../lib/gcc/nios2-elf/4.1.2\libgcc.a(_ge_df.o)
 .debug_loc     0x0000c115       0x70 c:/altera/13.0/nios2eds/bin/gnu/h-i686-mingw32/bin/../lib/gcc/nios2-elf/4.1.2\libgcc.a(_lt_df.o)
 .debug_loc     0x0000c185       0x8b c:/altera/13.0/nios2eds/bin/gnu/h-i686-mingw32/bin/../lib/gcc/nios2-elf/4.1.2\libgcc.a(_df_to_si.o)
 .debug_loc     0x0000c210      0x1d2 c:/altera/13.0/nios2eds/bin/gnu/h-i686-mingw32/bin/../lib/gcc/nios2-elf/4.1.2\libgcc.a(lib2-divmod.o)
 .debug_loc     0x0000c3e2       0x56 D:/cs723-assignment1/software/freertos_test_bsp/\libhal_bsp.a(alt_close.o)
 .debug_loc     0x0000c438       0x2b D:/cs723-assignment1/software/freertos_test_bsp/\libhal_bsp.a(alt_dev.o)
 .debug_loc     0x0000c463       0x56 D:/cs723-assignment1/software/freertos_test_bsp/\libhal_bsp.a(alt_fstat.o)
 .debug_loc     0x0000c4b9       0x2b D:/cs723-assignment1/software/freertos_test_bsp/\libhal_bsp.a(alt_irq_handler.o)
 .debug_loc     0x0000c4e4       0x57 D:/cs723-assignment1/software/freertos_test_bsp/\libhal_bsp.a(alt_isatty.o)
 .debug_loc     0x0000c53b       0x56 D:/cs723-assignment1/software/freertos_test_bsp/\libhal_bsp.a(alt_lseek.o)
 .debug_loc     0x0000c591       0x2b D:/cs723-assignment1/software/freertos_test_bsp/\libhal_bsp.a(alt_main.o)
 .debug_loc     0x0000c5bc       0x56 D:/cs723-assignment1/software/freertos_test_bsp/\libhal_bsp.a(alt_malloc_lock.o)
 .debug_loc     0x0000c612       0x56 D:/cs723-assignment1/software/freertos_test_bsp/\libhal_bsp.a(alt_read.o)
 .debug_loc     0x0000c668       0x2b D:/cs723-assignment1/software/freertos_test_bsp/\libhal_bsp.a(alt_release_fd.o)
 .debug_loc     0x0000c693       0x2b D:/cs723-assignment1/software/freertos_test_bsp/\libhal_bsp.a(alt_sbrk.o)
 .debug_loc     0x0000c6be       0x56 D:/cs723-assignment1/software/freertos_test_bsp/\libhal_bsp.a(alt_write.o)
 .debug_loc     0x0000c714       0x81 D:/cs723-assignment1/software/freertos_test_bsp/\libhal_bsp.a(alt_sys_init.o)
 .debug_loc     0x0000c795      0x12e D:/cs723-assignment1/software/freertos_test_bsp/\libhal_bsp.a(altera_avalon_cfi_flash.o)
 .debug_loc     0x0000c8c3      0x306 D:/cs723-assignment1/software/freertos_test_bsp/\libhal_bsp.a(altera_avalon_cfi_flash_table.o)
 .debug_loc     0x0000cbc9       0xac D:/cs723-assignment1/software/freertos_test_bsp/\libhal_bsp.a(altera_avalon_jtag_uart_fd.o)
 .debug_loc     0x0000cc75       0xac D:/cs723-assignment1/software/freertos_test_bsp/\libhal_bsp.a(altera_avalon_jtag_uart_init.o)
 .debug_loc     0x0000cd21       0x2b D:/cs723-assignment1/software/freertos_test_bsp/\libhal_bsp.a(altera_avalon_jtag_uart_ioctl.o)
 .debug_loc     0x0000cd4c       0x2b D:/cs723-assignment1/software/freertos_test_bsp/\libhal_bsp.a(altera_avalon_jtag_uart_read.o)
 .debug_loc     0x0000cd77       0x2b D:/cs723-assignment1/software/freertos_test_bsp/\libhal_bsp.a(altera_avalon_jtag_uart_write.o)
 .debug_loc     0x0000cda2      0x183 D:/cs723-assignment1/software/freertos_test_bsp/\libhal_bsp.a(altera_avalon_lcd_16207.o)
 .debug_loc     0x0000cf25       0x2b D:/cs723-assignment1/software/freertos_test_bsp/\libhal_bsp.a(altera_avalon_lcd_16207_fd.o)
 .debug_loc     0x0000cf50       0x56 D:/cs723-assignment1/software/freertos_test_bsp/\libhal_bsp.a(altera_avalon_timer_sc.o)
 .debug_loc     0x0000cfa6       0x81 D:/cs723-assignment1/software/freertos_test_bsp/\libhal_bsp.a(altera_avalon_uart_fd.o)
 .debug_loc     0x0000d027       0xd7 D:/cs723-assignment1/software/freertos_test_bsp/\libhal_bsp.a(altera_avalon_uart_init.o)
 .debug_loc     0x0000d0fe       0x57 D:/cs723-assignment1/software/freertos_test_bsp/\libhal_bsp.a(altera_avalon_uart_read.o)
 .debug_loc     0x0000d155       0x56 D:/cs723-assignment1/software/freertos_test_bsp/\libhal_bsp.a(altera_avalon_uart_write.o)
 .debug_loc     0x0000d1ab      0x306 D:/cs723-assignment1/software/freertos_test_bsp/\libhal_bsp.a(altera_up_avalon_ps2.o)
 .debug_loc     0x0000d4b1       0xd7 D:/cs723-assignment1/software/freertos_test_bsp/\libhal_bsp.a(altera_up_avalon_video_character_buffer_with_dma.o)
 .debug_loc     0x0000d588      0x206 D:/cs723-assignment1/software/freertos_test_bsp/\libhal_bsp.a(altera_up_avalon_video_pixel_buffer_dma.o)
 .debug_loc     0x0000d78e       0x2b D:/cs723-assignment1/software/freertos_test_bsp/\libhal_bsp.a(alt_alarm_start.o)
 .debug_loc     0x0000d7b9       0x2b D:/cs723-assignment1/software/freertos_test_bsp/\libhal_bsp.a(alt_dcache_flush.o)
 .debug_loc     0x0000d7e4       0x56 D:/cs723-assignment1/software/freertos_test_bsp/\libhal_bsp.a(alt_dev_llist_insert.o)
 .debug_loc     0x0000d83a       0x2b D:/cs723-assignment1/software/freertos_test_bsp/\libhal_bsp.a(alt_do_ctors.o)
 .debug_loc     0x0000d865       0x2b D:/cs723-assignment1/software/freertos_test_bsp/\libhal_bsp.a(alt_do_dtors.o)
 .debug_loc     0x0000d890       0x2b D:/cs723-assignment1/software/freertos_test_bsp/\libhal_bsp.a(alt_find_dev.o)
 .debug_loc     0x0000d8bb       0x56 D:/cs723-assignment1/software/freertos_test_bsp/\libhal_bsp.a(alt_flash_dev.o)
 .debug_loc     0x0000d911       0x56 D:/cs723-assignment1/software/freertos_test_bsp/\libhal_bsp.a(alt_io_redirect.o)
 .debug_loc     0x0000d967       0x81 D:/cs723-assignment1/software/freertos_test_bsp/\libhal_bsp.a(alt_open.o)
 .debug_loc     0x0000d9e8       0x56 D:/cs723-assignment1/software/freertos_test_bsp/\libhal_bsp.a(alt_tick.o)
 .debug_loc     0x0000da3e       0x2b D:/cs723-assignment1/software/freertos_test_bsp/\libhal_bsp.a(alt_usleep.o)
 .debug_loc     0x0000da69       0x2b D:/cs723-assignment1/software/freertos_test_bsp/\libhal_bsp.a(altera_nios2_qsys_irq.o)
 .debug_loc     0x0000da94       0xac D:/cs723-assignment1/software/freertos_test_bsp/\libhal_bsp.a(altera_avalon_cfi_flash_amd.o)
 .debug_loc     0x0000db40       0xac D:/cs723-assignment1/software/freertos_test_bsp/\libhal_bsp.a(altera_avalon_cfi_flash_intel.o)
 .debug_loc     0x0000dbec       0x2b D:/cs723-assignment1/software/freertos_test_bsp/\libhal_bsp.a(alt_busy_sleep.o)
 .debug_loc     0x0000dc17       0x2b D:/cs723-assignment1/software/freertos_test_bsp/\libhal_bsp.a(alt_find_file.o)
 .debug_loc     0x0000dc42       0x2b D:/cs723-assignment1/software/freertos_test_bsp/\libhal_bsp.a(alt_get_fd.o)
 .debug_loc     0x0000dc6d       0x1e c:/altera/13.0/nios2eds/bin/gnu/h-i686-mingw32/bin/../lib/gcc/nios2-elf/4.1.2/../../../../nios2-elf/lib\libc.a(lib_a-atexit.o)
 .debug_loc     0x0000dc8b       0x3d c:/altera/13.0/nios2eds/bin/gnu/h-i686-mingw32/bin/../lib/gcc/nios2-elf/4.1.2/../../../../nios2-elf/lib\libc.a(lib_a-exit.o)
 .debug_loc     0x0000dcc8      0x120 c:/altera/13.0/nios2eds/bin/gnu/h-i686-mingw32/bin/../lib/gcc/nios2-elf/4.1.2/../../../../nios2-elf/lib\libc.a(lib_a-__atexit.o)
 .debug_loc     0x0000dde8      0x1cb c:/altera/13.0/nios2eds/bin/gnu/h-i686-mingw32/bin/../lib/gcc/nios2-elf/4.1.2/../../../../nios2-elf/lib\libc.a(lib_a-__call_atexit.o)
 .debug_loc     0x0000dfb3       0x56 D:/cs723-assignment1/software/freertos_test_bsp/\libhal_bsp.a(alt_exit.o)

.debug_macinfo
 *(.debug_macinfo)

.debug_weaknames
 *(.debug_weaknames)

.debug_funcnames
 *(.debug_funcnames)

.debug_typenames
 *(.debug_typenames)

.debug_varnames
 *(.debug_varnames)

.debug_alt_sim_info
                0x00000000       0x50
 *(.debug_alt_sim_info)
 .debug_alt_sim_info
                0x00000000       0x20 D:/cs723-assignment1/software/freertos_test_bsp//obj/HAL/src/crt0.o
 .debug_alt_sim_info
                0x00000020       0x30 D:/cs723-assignment1/software/freertos_test_bsp/\libhal_bsp.a(alt_busy_sleep.o)
                0x10000000                __alt_data_end = 0x10000000
                0x10000000                PROVIDE (__alt_stack_pointer, __alt_data_end)
                0x0807fc34                PROVIDE (__alt_stack_limit, __alt_stack_base)
                0x0807fc34                PROVIDE (__alt_heap_start, end)
                0x10000000                PROVIDE (__alt_heap_limit, 0x10000000)
OUTPUT(freertos_test.elf elf32-littlenios2)

.debug_ranges   0x00000000      0x950
 .debug_ranges  0x00000000       0x38 obj/default//D/cs723-assignment1/software/freertos_test/freertos/port_asm.o
 .debug_ranges  0x00000038       0x30 c:/altera/13.0/nios2eds/bin/gnu/h-i686-mingw32/bin/../lib/gcc/nios2-elf/4.1.2\libgcc.a(_addsub_df.o)
 .debug_ranges  0x00000068       0x88 c:/altera/13.0/nios2eds/bin/gnu/h-i686-mingw32/bin/../lib/gcc/nios2-elf/4.1.2\libgcc.a(_mul_df.o)
 .debug_ranges  0x000000f0       0x50 c:/altera/13.0/nios2eds/bin/gnu/h-i686-mingw32/bin/../lib/gcc/nios2-elf/4.1.2\libgcc.a(_div_df.o)
 .debug_ranges  0x00000140       0x18 c:/altera/13.0/nios2eds/bin/gnu/h-i686-mingw32/bin/../lib/gcc/nios2-elf/4.1.2\libgcc.a(_usi_to_df.o)
 .debug_ranges  0x00000158       0x68 c:/altera/13.0/nios2eds/bin/gnu/h-i686-mingw32/bin/../lib/gcc/nios2-elf/4.1.2\libgcc.a(_muldi3.o)
 .debug_ranges  0x000001c0       0x28 c:/altera/13.0/nios2eds/bin/gnu/h-i686-mingw32/bin/../lib/gcc/nios2-elf/4.1.2\libgcc.a(_clzsi2.o)
 .debug_ranges  0x000001e8       0x28 c:/altera/13.0/nios2eds/bin/gnu/h-i686-mingw32/bin/../lib/gcc/nios2-elf/4.1.2\libgcc.a(_pack_df.o)
 .debug_ranges  0x00000210      0x168 c:/altera/13.0/nios2eds/bin/gnu/h-i686-mingw32/bin/../lib/gcc/nios2-elf/4.1.2/../../../../nios2-elf/lib\libc.a(lib_a-vfprintf.o)
 .debug_ranges  0x00000378       0x20 c:/altera/13.0/nios2eds/bin/gnu/h-i686-mingw32/bin/../lib/gcc/nios2-elf/4.1.2/../../../../nios2-elf/lib\libc.a(lib_a-fflush.o)
 .debug_ranges  0x00000398       0x28 c:/altera/13.0/nios2eds/bin/gnu/h-i686-mingw32/bin/../lib/gcc/nios2-elf/4.1.2/../../../../nios2-elf/lib\libc.a(lib_a-fvwrite.o)
 .debug_ranges  0x000003c0       0xa0 c:/altera/13.0/nios2eds/bin/gnu/h-i686-mingw32/bin/../lib/gcc/nios2-elf/4.1.2/../../../../nios2-elf/lib\libc.a(lib_a-fwalk.o)
 .debug_ranges  0x00000460       0x70 c:/altera/13.0/nios2eds/bin/gnu/h-i686-mingw32/bin/../lib/gcc/nios2-elf/4.1.2/../../../../nios2-elf/lib\libc.a(lib_a-mallocr.o)
 .debug_ranges  0x000004d0      0x110 c:/altera/13.0/nios2eds/bin/gnu/h-i686-mingw32/bin/../lib/gcc/nios2-elf/4.1.2/../../../../nios2-elf/lib\libc.a(lib_a-reallocr.o)
 .debug_ranges  0x000005e0       0x38 c:/altera/13.0/nios2eds/bin/gnu/h-i686-mingw32/bin/../lib/gcc/nios2-elf/4.1.2/../../../../nios2-elf/lib\libc.a(lib_a-callocr.o)
 .debug_ranges  0x00000618      0x188 c:/altera/13.0/nios2eds/bin/gnu/h-i686-mingw32/bin/../lib/gcc/nios2-elf/4.1.2\libgcc.a(_udivdi3.o)
 .debug_ranges  0x000007a0      0x198 c:/altera/13.0/nios2eds/bin/gnu/h-i686-mingw32/bin/../lib/gcc/nios2-elf/4.1.2\libgcc.a(_umoddi3.o)
 .debug_ranges  0x00000938       0x18 c:/altera/13.0/nios2eds/bin/gnu/h-i686-mingw32/bin/../lib/gcc/nios2-elf/4.1.2/../../../../nios2-elf/lib\libc.a(lib_a-__call_atexit.o)
